
app:     file format elf64-x86-64


Disassembly of section .init:

0000000000003000 <_init>:
    3000:	50                   	push   %rax
    3001:	e8 ba 15 00 00       	call   45c0 <frame_dummy>
    3006:	e8 d5 c1 00 00       	call   f1e0 <__do_global_ctors_aux>
    300b:	58                   	pop    %rax
    300c:	c3                   	ret    

Disassembly of section .plt:

0000000000003010 <_ZNSo9_M_insertImEERSoT_@plt-0x10>:
    3010:	ff 35 a2 0d 01 00    	push   0x10da2(%rip)        # 13db8 <_GLOBAL_OFFSET_TABLE_+0x8>
    3016:	ff 25 a4 0d 01 00    	jmp    *0x10da4(%rip)        # 13dc0 <_GLOBAL_OFFSET_TABLE_+0x10>
    301c:	0f 1f 40 00          	nopl   0x0(%rax)

0000000000003020 <_ZNSo9_M_insertImEERSoT_@plt>:
    3020:	ff 25 a2 0d 01 00    	jmp    *0x10da2(%rip)        # 13dc8 <_ZNSo9_M_insertImEERSoT_@Base>
    3026:	68 00 00 00 00       	push   $0x0
    302b:	e9 e0 ff ff ff       	jmp    3010 <_init+0x10>

0000000000003030 <_ZNSt9basic_iosIcSt11char_traitsIcEE4initEPSt15basic_streambufIcS1_E@plt>:
    3030:	ff 25 9a 0d 01 00    	jmp    *0x10d9a(%rip)        # 13dd0 <_ZNSt9basic_iosIcSt11char_traitsIcEE4initEPSt15basic_streambufIcS1_E@Base>
    3036:	68 01 00 00 00       	push   $0x1
    303b:	e9 d0 ff ff ff       	jmp    3010 <_init+0x10>

0000000000003040 <exit@plt>:
    3040:	ff 25 92 0d 01 00    	jmp    *0x10d92(%rip)        # 13dd8 <exit@Base>
    3046:	68 02 00 00 00       	push   $0x2
    304b:	e9 c0 ff ff ff       	jmp    3010 <_init+0x10>

0000000000003050 <_ZNSt7__cxx1112basic_stringIcSt11char_traitsIcESaIcEE7reserveEm@plt>:
    3050:	ff 25 8a 0d 01 00    	jmp    *0x10d8a(%rip)        # 13de0 <_ZNSt7__cxx1112basic_stringIcSt11char_traitsIcESaIcEE7reserveEm@Base>
    3056:	68 03 00 00 00       	push   $0x3
    305b:	e9 b0 ff ff ff       	jmp    3010 <_init+0x10>

0000000000003060 <_ZNSt11range_errorC1EPKc@plt>:
    3060:	ff 25 82 0d 01 00    	jmp    *0x10d82(%rip)        # 13de8 <_ZNSt11range_errorC1EPKc@Base>
    3066:	68 04 00 00 00       	push   $0x4
    306b:	e9 a0 ff ff ff       	jmp    3010 <_init+0x10>

0000000000003070 <_ZNKSt5ctypeIcE13_M_widen_initEv@plt>:
    3070:	ff 25 7a 0d 01 00    	jmp    *0x10d7a(%rip)        # 13df0 <_ZNKSt5ctypeIcE13_M_widen_initEv@Base>
    3076:	68 05 00 00 00       	push   $0x5
    307b:	e9 90 ff ff ff       	jmp    3010 <_init+0x10>

0000000000003080 <_ZNSt7__cxx1112basic_stringIcSt11char_traitsIcESaIcEE14_M_replace_auxEmmmc@plt>:
    3080:	ff 25 72 0d 01 00    	jmp    *0x10d72(%rip)        # 13df8 <_ZNSt7__cxx1112basic_stringIcSt11char_traitsIcESaIcEE14_M_replace_auxEmmmc@Base>
    3086:	68 06 00 00 00       	push   $0x6
    308b:	e9 80 ff ff ff       	jmp    3010 <_init+0x10>

0000000000003090 <_ZSt18_Rb_tree_decrementPSt18_Rb_tree_node_base@plt>:
    3090:	ff 25 6a 0d 01 00    	jmp    *0x10d6a(%rip)        # 13e00 <_ZSt18_Rb_tree_decrementPSt18_Rb_tree_node_base@Base>
    3096:	68 07 00 00 00       	push   $0x7
    309b:	e9 70 ff ff ff       	jmp    3010 <_init+0x10>

00000000000030a0 <_ZNSt8ios_baseD2Ev@plt>:
    30a0:	ff 25 62 0d 01 00    	jmp    *0x10d62(%rip)        # 13e08 <_ZNSt8ios_baseD2Ev@Base>
    30a6:	68 08 00 00 00       	push   $0x8
    30ab:	e9 60 ff ff ff       	jmp    3010 <_init+0x10>

00000000000030b0 <_ZSt18_Rb_tree_incrementPSt18_Rb_tree_node_base@plt>:
    30b0:	ff 25 5a 0d 01 00    	jmp    *0x10d5a(%rip)        # 13e10 <_ZSt18_Rb_tree_incrementPSt18_Rb_tree_node_base@Base>
    30b6:	68 09 00 00 00       	push   $0x9
    30bb:	e9 50 ff ff ff       	jmp    3010 <_init+0x10>

00000000000030c0 <__cxa_end_catch@plt>:
    30c0:	ff 25 52 0d 01 00    	jmp    *0x10d52(%rip)        # 13e18 <__cxa_end_catch@Base>
    30c6:	68 0a 00 00 00       	push   $0xa
    30cb:	e9 40 ff ff ff       	jmp    3010 <_init+0x10>

00000000000030d0 <__cxa_allocate_exception@plt>:
    30d0:	ff 25 4a 0d 01 00    	jmp    *0x10d4a(%rip)        # 13e20 <__cxa_allocate_exception@Base>
    30d6:	68 0b 00 00 00       	push   $0xb
    30db:	e9 30 ff ff ff       	jmp    3010 <_init+0x10>

00000000000030e0 <_ZSt18_Rb_tree_incrementPKSt18_Rb_tree_node_base@plt>:
    30e0:	ff 25 42 0d 01 00    	jmp    *0x10d42(%rip)        # 13e28 <_ZSt18_Rb_tree_incrementPKSt18_Rb_tree_node_base@Base>
    30e6:	68 0c 00 00 00       	push   $0xc
    30eb:	e9 20 ff ff ff       	jmp    3010 <_init+0x10>

00000000000030f0 <_ZNSt16invalid_argumentC1EPKc@plt>:
    30f0:	ff 25 3a 0d 01 00    	jmp    *0x10d3a(%rip)        # 13e30 <_ZNSt16invalid_argumentC1EPKc@Base>
    30f6:	68 0d 00 00 00       	push   $0xd
    30fb:	e9 10 ff ff ff       	jmp    3010 <_init+0x10>

0000000000003100 <_ZNSt8ios_baseC2Ev@plt>:
    3100:	ff 25 32 0d 01 00    	jmp    *0x10d32(%rip)        # 13e38 <_ZNSt8ios_baseC2Ev@Base>
    3106:	68 0e 00 00 00       	push   $0xe
    310b:	e9 00 ff ff ff       	jmp    3010 <_init+0x10>

0000000000003110 <_ZNSt6localeC1Ev@plt>:
    3110:	ff 25 2a 0d 01 00    	jmp    *0x10d2a(%rip)        # 13e40 <_ZNSt6localeC1Ev@Base>
    3116:	68 0f 00 00 00       	push   $0xf
    311b:	e9 f0 fe ff ff       	jmp    3010 <_init+0x10>

0000000000003120 <_ZStlsISt11char_traitsIcEERSt13basic_ostreamIcT_ES5_PKc@plt>:
    3120:	ff 25 22 0d 01 00    	jmp    *0x10d22(%rip)        # 13e48 <_ZStlsISt11char_traitsIcEERSt13basic_ostreamIcT_ES5_PKc@Base>
    3126:	68 10 00 00 00       	push   $0x10
    312b:	e9 e0 fe ff ff       	jmp    3010 <_init+0x10>

0000000000003130 <_ZNSo9_M_insertIdEERSoT_@plt>:
    3130:	ff 25 1a 0d 01 00    	jmp    *0x10d1a(%rip)        # 13e50 <_ZNSo9_M_insertIdEERSoT_@Base>
    3136:	68 11 00 00 00       	push   $0x11
    313b:	e9 d0 fe ff ff       	jmp    3010 <_init+0x10>

0000000000003140 <memcpy@plt>:
    3140:	ff 25 12 0d 01 00    	jmp    *0x10d12(%rip)        # 13e58 <memcpy@Base>
    3146:	68 12 00 00 00       	push   $0x12
    314b:	e9 c0 fe ff ff       	jmp    3010 <_init+0x10>

0000000000003150 <__stack_chk_fail@plt>:
    3150:	ff 25 0a 0d 01 00    	jmp    *0x10d0a(%rip)        # 13e60 <__stack_chk_fail@Base>
    3156:	68 13 00 00 00       	push   $0x13
    315b:	e9 b0 fe ff ff       	jmp    3010 <_init+0x10>

0000000000003160 <_ZNSo5flushEv@plt>:
    3160:	ff 25 02 0d 01 00    	jmp    *0x10d02(%rip)        # 13e68 <_ZNSo5flushEv@Base>
    3166:	68 14 00 00 00       	push   $0x14
    316b:	e9 a0 fe ff ff       	jmp    3010 <_init+0x10>

0000000000003170 <isspace@plt>:
    3170:	ff 25 fa 0c 01 00    	jmp    *0x10cfa(%rip)        # 13e70 <isspace@Base>
    3176:	68 15 00 00 00       	push   $0x15
    317b:	e9 90 fe ff ff       	jmp    3010 <_init+0x10>

0000000000003180 <_ZNKSt7__cxx1115basic_stringbufIcSt11char_traitsIcESaIcEE3strEv@plt>:
    3180:	ff 25 f2 0c 01 00    	jmp    *0x10cf2(%rip)        # 13e78 <_ZNKSt7__cxx1115basic_stringbufIcSt11char_traitsIcESaIcEE3strEv@Base>
    3186:	68 16 00 00 00       	push   $0x16
    318b:	e9 80 fe ff ff       	jmp    3010 <_init+0x10>

0000000000003190 <_ZNSo3putEc@plt>:
    3190:	ff 25 ea 0c 01 00    	jmp    *0x10cea(%rip)        # 13e80 <_ZNSo3putEc@Base>
    3196:	68 17 00 00 00       	push   $0x17
    319b:	e9 70 fe ff ff       	jmp    3010 <_init+0x10>

00000000000031a0 <_ZNSt7__cxx1112basic_stringIcSt11char_traitsIcESaIcEE9_M_assignERKS4_@plt>:
    31a0:	ff 25 e2 0c 01 00    	jmp    *0x10ce2(%rip)        # 13e88 <_ZNSt7__cxx1112basic_stringIcSt11char_traitsIcESaIcEE9_M_assignERKS4_@Base>
    31a6:	68 18 00 00 00       	push   $0x18
    31ab:	e9 60 fe ff ff       	jmp    3010 <_init+0x10>

00000000000031b0 <_ZNSt7__cxx1112basic_stringIcSt11char_traitsIcESaIcEE10_M_replaceEmmPKcm@plt>:
    31b0:	ff 25 da 0c 01 00    	jmp    *0x10cda(%rip)        # 13e90 <_ZNSt7__cxx1112basic_stringIcSt11char_traitsIcESaIcEE10_M_replaceEmmPKcm@Base>
    31b6:	68 19 00 00 00       	push   $0x19
    31bb:	e9 50 fe ff ff       	jmp    3010 <_init+0x10>

00000000000031c0 <_ZSt25__throw_bad_function_callv@plt>:
    31c0:	ff 25 d2 0c 01 00    	jmp    *0x10cd2(%rip)        # 13e98 <_ZSt25__throw_bad_function_callv@Base>
    31c6:	68 1a 00 00 00       	push   $0x1a
    31cb:	e9 40 fe ff ff       	jmp    3010 <_init+0x10>

00000000000031d0 <_ZSt16__throw_bad_castv@plt>:
    31d0:	ff 25 ca 0c 01 00    	jmp    *0x10cca(%rip)        # 13ea0 <_ZSt16__throw_bad_castv@Base>
    31d6:	68 1b 00 00 00       	push   $0x1b
    31db:	e9 30 fe ff ff       	jmp    3010 <_init+0x10>

00000000000031e0 <_ZNSt7__cxx1112basic_stringIcSt11char_traitsIcESaIcEE9_M_appendEPKcm@plt>:
    31e0:	ff 25 c2 0c 01 00    	jmp    *0x10cc2(%rip)        # 13ea8 <_ZNSt7__cxx1112basic_stringIcSt11char_traitsIcESaIcEE9_M_appendEPKcm@Base>
    31e6:	68 1c 00 00 00       	push   $0x1c
    31eb:	e9 20 fe ff ff       	jmp    3010 <_init+0x10>

00000000000031f0 <_ZNSt13runtime_errorC1EPKc@plt>:
    31f0:	ff 25 ba 0c 01 00    	jmp    *0x10cba(%rip)        # 13eb0 <_ZNSt13runtime_errorC1EPKc@Base>
    31f6:	68 1d 00 00 00       	push   $0x1d
    31fb:	e9 10 fe ff ff       	jmp    3010 <_init+0x10>

0000000000003200 <__cxa_begin_catch@plt>:
    3200:	ff 25 b2 0c 01 00    	jmp    *0x10cb2(%rip)        # 13eb8 <__cxa_begin_catch@Base>
    3206:	68 1e 00 00 00       	push   $0x1e
    320b:	e9 00 fe ff ff       	jmp    3010 <_init+0x10>

0000000000003210 <__cxa_rethrow@plt>:
    3210:	ff 25 aa 0c 01 00    	jmp    *0x10caa(%rip)        # 13ec0 <__cxa_rethrow@Base>
    3216:	68 1f 00 00 00       	push   $0x1f
    321b:	e9 f0 fd ff ff       	jmp    3010 <_init+0x10>

0000000000003220 <__cxa_throw@plt>:
    3220:	ff 25 a2 0c 01 00    	jmp    *0x10ca2(%rip)        # 13ec8 <__cxa_throw@Base>
    3226:	68 20 00 00 00       	push   $0x20
    322b:	e9 e0 fd ff ff       	jmp    3010 <_init+0x10>

0000000000003230 <_ZNSt6localeD1Ev@plt>:
    3230:	ff 25 9a 0c 01 00    	jmp    *0x10c9a(%rip)        # 13ed0 <_ZNSt6localeD1Ev@Base>
    3236:	68 21 00 00 00       	push   $0x21
    323b:	e9 d0 fd ff ff       	jmp    3010 <_init+0x10>

0000000000003240 <__libc_start_main@plt>:
    3240:	ff 25 92 0c 01 00    	jmp    *0x10c92(%rip)        # 13ed8 <__libc_start_main@Base>
    3246:	68 22 00 00 00       	push   $0x22
    324b:	e9 c0 fd ff ff       	jmp    3010 <_init+0x10>

0000000000003250 <_ZNSt8ios_base4InitC1Ev@plt>:
    3250:	ff 25 8a 0c 01 00    	jmp    *0x10c8a(%rip)        # 13ee0 <_ZNSt8ios_base4InitC1Ev@Base>
    3256:	68 23 00 00 00       	push   $0x23
    325b:	e9 b0 fd ff ff       	jmp    3010 <_init+0x10>

0000000000003260 <_ZNSt9exceptionD2Ev@plt>:
    3260:	ff 25 82 0c 01 00    	jmp    *0x10c82(%rip)        # 13ee8 <_ZNSt9exceptionD2Ev@Base>
    3266:	68 24 00 00 00       	push   $0x24
    326b:	e9 a0 fd ff ff       	jmp    3010 <_init+0x10>

0000000000003270 <memcmp@plt>:
    3270:	ff 25 7a 0c 01 00    	jmp    *0x10c7a(%rip)        # 13ef0 <memcmp@Base>
    3276:	68 25 00 00 00       	push   $0x25
    327b:	e9 90 fd ff ff       	jmp    3010 <_init+0x10>

0000000000003280 <_ZNSt7__cxx1112basic_stringIcSt11char_traitsIcESaIcEE4swapERS4_@plt>:
    3280:	ff 25 72 0c 01 00    	jmp    *0x10c72(%rip)        # 13ef8 <_ZNSt7__cxx1112basic_stringIcSt11char_traitsIcESaIcEE4swapERS4_@Base>
    3286:	68 26 00 00 00       	push   $0x26
    328b:	e9 80 fd ff ff       	jmp    3010 <_init+0x10>

0000000000003290 <_ZNSt13runtime_errorC1ERKNSt7__cxx1112basic_stringIcSt11char_traitsIcESaIcEEE@plt>:
    3290:	ff 25 6a 0c 01 00    	jmp    *0x10c6a(%rip)        # 13f00 <_ZNSt13runtime_errorC1ERKNSt7__cxx1112basic_stringIcSt11char_traitsIcESaIcEEE@Base>
    3296:	68 27 00 00 00       	push   $0x27
    329b:	e9 70 fd ff ff       	jmp    3010 <_init+0x10>

00000000000032a0 <_Znwm@plt>:
    32a0:	ff 25 62 0c 01 00    	jmp    *0x10c62(%rip)        # 13f08 <_Znwm@Base>
    32a6:	68 28 00 00 00       	push   $0x28
    32ab:	e9 60 fd ff ff       	jmp    3010 <_init+0x10>

00000000000032b0 <_ZNSt8__detail15_List_node_base11_M_transferEPS0_S1_@plt>:
    32b0:	ff 25 5a 0c 01 00    	jmp    *0x10c5a(%rip)        # 13f10 <_ZNSt8__detail15_List_node_base11_M_transferEPS0_S1_@Base>
    32b6:	68 29 00 00 00       	push   $0x29
    32bb:	e9 50 fd ff ff       	jmp    3010 <_init+0x10>

00000000000032c0 <_ZSt24__throw_out_of_range_fmtPKcz@plt>:
    32c0:	ff 25 52 0c 01 00    	jmp    *0x10c52(%rip)        # 13f18 <_ZSt24__throw_out_of_range_fmtPKcz@Base>
    32c6:	68 2a 00 00 00       	push   $0x2a
    32cb:	e9 40 fd ff ff       	jmp    3010 <_init+0x10>

00000000000032d0 <strtof@plt>:
    32d0:	ff 25 4a 0c 01 00    	jmp    *0x10c4a(%rip)        # 13f20 <strtof@Base>
    32d6:	68 2b 00 00 00       	push   $0x2b
    32db:	e9 30 fd ff ff       	jmp    3010 <_init+0x10>

00000000000032e0 <__cxa_atexit@plt>:
    32e0:	ff 25 42 0c 01 00    	jmp    *0x10c42(%rip)        # 13f28 <__cxa_atexit@Base>
    32e6:	68 2c 00 00 00       	push   $0x2c
    32eb:	e9 20 fd ff ff       	jmp    3010 <_init+0x10>

00000000000032f0 <_ZNSt8__detail15_List_node_base7_M_hookEPS0_@plt>:
    32f0:	ff 25 3a 0c 01 00    	jmp    *0x10c3a(%rip)        # 13f30 <_ZNSt8__detail15_List_node_base7_M_hookEPS0_@Base>
    32f6:	68 2d 00 00 00       	push   $0x2d
    32fb:	e9 10 fd ff ff       	jmp    3010 <_init+0x10>

0000000000003300 <_ZNSt7__cxx1112basic_stringIcSt11char_traitsIcESaIcEE9_M_createERmm@plt>:
    3300:	ff 25 32 0c 01 00    	jmp    *0x10c32(%rip)        # 13f38 <_ZNSt7__cxx1112basic_stringIcSt11char_traitsIcESaIcEE9_M_createERmm@Base>
    3306:	68 2e 00 00 00       	push   $0x2e
    330b:	e9 00 fd ff ff       	jmp    3010 <_init+0x10>

0000000000003310 <_ZNSt7__cxx1118basic_stringstreamIcSt11char_traitsIcESaIcEEC1Ev@plt>:
    3310:	ff 25 2a 0c 01 00    	jmp    *0x10c2a(%rip)        # 13f40 <_ZNSt7__cxx1118basic_stringstreamIcSt11char_traitsIcESaIcEEC1Ev@Base>
    3316:	68 2f 00 00 00       	push   $0x2f
    331b:	e9 f0 fc ff ff       	jmp    3010 <_init+0x10>

0000000000003320 <_ZdlPvm@plt>:
    3320:	ff 25 22 0c 01 00    	jmp    *0x10c22(%rip)        # 13f48 <_ZdlPvm@Base>
    3326:	68 30 00 00 00       	push   $0x30
    332b:	e9 e0 fc ff ff       	jmp    3010 <_init+0x10>

0000000000003330 <strlen@plt>:
    3330:	ff 25 1a 0c 01 00    	jmp    *0x10c1a(%rip)        # 13f50 <strlen@Base>
    3336:	68 31 00 00 00       	push   $0x31
    333b:	e9 d0 fc ff ff       	jmp    3010 <_init+0x10>

0000000000003340 <_ZSt20__throw_length_errorPKc@plt>:
    3340:	ff 25 12 0c 01 00    	jmp    *0x10c12(%rip)        # 13f58 <_ZSt20__throw_length_errorPKc@Base>
    3346:	68 32 00 00 00       	push   $0x32
    334b:	e9 c0 fc ff ff       	jmp    3010 <_init+0x10>

0000000000003350 <_ZNSolsEi@plt>:
    3350:	ff 25 0a 0c 01 00    	jmp    *0x10c0a(%rip)        # 13f60 <_ZNSolsEi@Base>
    3356:	68 33 00 00 00       	push   $0x33
    335b:	e9 b0 fc ff ff       	jmp    3010 <_init+0x10>

0000000000003360 <_Unwind_Resume@plt>:
    3360:	ff 25 02 0c 01 00    	jmp    *0x10c02(%rip)        # 13f68 <_Unwind_Resume@GCC_3.0>
    3366:	68 34 00 00 00       	push   $0x34
    336b:	e9 a0 fc ff ff       	jmp    3010 <_init+0x10>

0000000000003370 <_ZSt29_Rb_tree_insert_and_rebalancebPSt18_Rb_tree_node_baseS0_RS_@plt>:
    3370:	ff 25 fa 0b 01 00    	jmp    *0x10bfa(%rip)        # 13f70 <_ZSt29_Rb_tree_insert_and_rebalancebPSt18_Rb_tree_node_baseS0_RS_@Base>
    3376:	68 35 00 00 00       	push   $0x35
    337b:	e9 90 fc ff ff       	jmp    3010 <_init+0x10>

0000000000003380 <_ZNSt7__cxx1118basic_stringstreamIcSt11char_traitsIcESaIcEED1Ev@plt>:
    3380:	ff 25 f2 0b 01 00    	jmp    *0x10bf2(%rip)        # 13f78 <_ZNSt7__cxx1118basic_stringstreamIcSt11char_traitsIcESaIcEED1Ev@Base>
    3386:	68 36 00 00 00       	push   $0x36
    338b:	e9 80 fc ff ff       	jmp    3010 <_init+0x10>

0000000000003390 <__errno_location@plt>:
    3390:	ff 25 ea 0b 01 00    	jmp    *0x10bea(%rip)        # 13f80 <__errno_location@Base>
    3396:	68 37 00 00 00       	push   $0x37
    339b:	e9 70 fc ff ff       	jmp    3010 <_init+0x10>

00000000000033a0 <_ZSt16__ostream_insertIcSt11char_traitsIcEERSt13basic_ostreamIT_T0_ES6_PKS3_l@plt>:
    33a0:	ff 25 e2 0b 01 00    	jmp    *0x10be2(%rip)        # 13f88 <_ZSt16__ostream_insertIcSt11char_traitsIcEERSt13basic_ostreamIT_T0_ES6_PKS3_l@Base>
    33a6:	68 38 00 00 00       	push   $0x38
    33ab:	e9 60 fc ff ff       	jmp    3010 <_init+0x10>

00000000000033b0 <__cxa_free_exception@plt>:
    33b0:	ff 25 da 0b 01 00    	jmp    *0x10bda(%rip)        # 13f90 <__cxa_free_exception@Base>
    33b6:	68 39 00 00 00       	push   $0x39
    33bb:	e9 50 fc ff ff       	jmp    3010 <_init+0x10>

00000000000033c0 <_ZSt19__throw_logic_errorPKc@plt>:
    33c0:	ff 25 d2 0b 01 00    	jmp    *0x10bd2(%rip)        # 13f98 <_ZSt19__throw_logic_errorPKc@Base>
    33c6:	68 3a 00 00 00       	push   $0x3a
    33cb:	e9 40 fc ff ff       	jmp    3010 <_init+0x10>

Disassembly of section .plt.got:

00000000000033d0 <__cxa_finalize@plt>:
    33d0:	ff 25 ca 0b 01 00    	jmp    *0x10bca(%rip)        # 13fa0 <__cxa_finalize@Base>
    33d6:	66 90                	xchg   %ax,%ax

00000000000033d8 <__register_frame_info@plt>:
    33d8:	ff 25 da 0b 01 00    	jmp    *0x10bda(%rip)        # 13fb8 <__register_frame_info@GCC_3.0>
    33de:	66 90                	xchg   %ax,%ax

00000000000033e0 <__deregister_frame_info@plt>:
    33e0:	ff 25 ea 0b 01 00    	jmp    *0x10bea(%rip)        # 13fd0 <__deregister_frame_info@GCC_3.0>
    33e6:	66 90                	xchg   %ax,%ax

Disassembly of section .text:

00000000000033f0 <_ZSt26__throw_bad_variant_accessPKc>:
    33f0:	53                   	push   %rbx
    33f1:	48 89 fb             	mov    %rdi,%rbx
    33f4:	bf 10 00 00 00       	mov    $0x10,%edi
    33f9:	e8 d2 fc ff ff       	call   30d0 <__cxa_allocate_exception@plt>
    33fe:	48 89 c7             	mov    %rax,%rdi
    3401:	48 8d 05 68 04 01 00 	lea    0x10468(%rip),%rax        # 13870 <_ZTVSt18bad_variant_access+0x10>
    3408:	48 89 07             	mov    %rax,(%rdi)
    340b:	48 89 5f 08          	mov    %rbx,0x8(%rdi)
    340f:	48 8d 15 ba 2e 00 00 	lea    0x2eba(%rip),%rdx        # 62d0 <_ZNSt18bad_variant_accessD1Ev>
    3416:	48 8d 35 13 07 01 00 	lea    0x10713(%rip),%rsi        # 13b30 <_ZTVN10__cxxabiv120__si_class_type_infoE@Base>
    341d:	e8 fe fd ff ff       	call   3220 <__cxa_throw@plt>

0000000000003422 <_ZSt26__throw_bad_variant_accessb>:
    3422:	50                   	push   %rax
    3423:	40 84 ff             	test   %dil,%dil
    3426:	74 0c                	je     3434 <_ZSt26__throw_bad_variant_accessb+0x12>
    3428:	48 8d 3d e1 cc 00 00 	lea    0xcce1(%rip),%rdi        # 10110 <_fini+0xeef>
    342f:	e8 bc ff ff ff       	call   33f0 <_ZSt26__throw_bad_variant_accessPKc>
    3434:	48 8d 3d f5 cc 00 00 	lea    0xccf5(%rip),%rdi        # 10130 <_fini+0xf0f>
    343b:	e8 b0 ff ff ff       	call   33f0 <_ZSt26__throw_bad_variant_accessPKc>

0000000000003440 <_ZZNSt8__detail9__variant17_Move_assign_baseILb0EJSt8functionIFSt3anyRKNSt7__cxx1112basic_stringIcSt11char_traitsIcESaIcEEEEES2_IFvSB_EEEEaSEOSG_ENUlOT_T0_E_clIRSD_St17integral_constantImLm0EEEEDaSJ_SK_.isra.0.cold>:
    3440:	31 ff                	xor    %edi,%edi
    3442:	e8 db ff ff ff       	call   3422 <_ZSt26__throw_bad_variant_accessb>
    3447:	90                   	nop

0000000000003448 <_ZNSt7variantIJSt8functionIFSt3anyRKNSt7__cxx1112basic_stringIcSt11char_traitsIcESaIcEEEEES0_IFvS9_EEEE7emplaceILm0EJN8argparse7details12parse_numberIiLi0EEEEEENSt9enable_ifIX18is_constructible_vINSt19variant_alternativeIXT_ESE_E4typeEDpT0_EERSN_E4typeEDpOSO_.isra.0.cold>:
    3448:	31 ff                	xor    %edi,%edi
    344a:	e8 d3 ff ff ff       	call   3422 <_ZSt26__throw_bad_variant_accessb>

000000000000344f <_ZN8argparselsERSoRKNS_8ArgumentE.isra.0.cold>:
    344f:	48 8b 05 7a 05 01 00 	mov    0x1057a(%rip),%rax        # 139d0 <_ZTTNSt7__cxx1118basic_stringstreamIcSt11char_traitsIcESaIcEEE+0x10>
    3456:	48 8b 35 7b 05 01 00 	mov    0x1057b(%rip),%rsi        # 139d8 <_ZTTNSt7__cxx1118basic_stringstreamIcSt11char_traitsIcESaIcEEE+0x18>
    345d:	48 89 44 24 40       	mov    %rax,0x40(%rsp)
    3462:	48 8b 40 e8          	mov    -0x18(%rax),%rax
    3466:	48 89 74 04 40       	mov    %rsi,0x40(%rsp,%rax,1)
    346b:	48 c7 44 24 48 00 00 	movq   $0x0,0x48(%rsp)
    3472:	00 00 
    3474:	c5 f8 77             	vzeroupper 
    3477:	48 8b 7c 24 18       	mov    0x18(%rsp),%rdi
    347c:	48 8d 05 65 04 01 00 	lea    0x10465(%rip),%rax        # 138e8 <_ZTVSt9basic_iosIcSt11char_traitsIcEE+0x10>
    3483:	48 89 84 24 c0 00 00 	mov    %rax,0xc0(%rsp)
    348a:	00 
    348b:	e8 10 fc ff ff       	call   30a0 <_ZNSt8ios_baseD2Ev@plt>
    3490:	48 89 df             	mov    %rbx,%rdi
    3493:	e8 c8 fe ff ff       	call   3360 <_Unwind_Resume@plt>
    3498:	48 8b 7c 24 20       	mov    0x20(%rsp),%rdi
    349d:	48 39 df             	cmp    %rbx,%rdi
    34a0:	0f 84 ac 00 00 00    	je     3552 <_ZN8argparselsERSoRKNS_8ArgumentE.isra.0.cold+0x103>
    34a6:	48 8b 44 24 30       	mov    0x30(%rsp),%rax
    34ab:	48 8d 70 01          	lea    0x1(%rax),%rsi
    34af:	c5 f8 77             	vzeroupper 
    34b2:	e8 69 fe ff ff       	call   3320 <_ZdlPvm@plt>
    34b7:	48 8b 3c 24          	mov    (%rsp),%rdi
    34bb:	e8 c0 fe ff ff       	call   3380 <_ZNSt7__cxx1118basic_stringstreamIcSt11char_traitsIcESaIcEED1Ev@plt>
    34c0:	4c 89 e7             	mov    %r12,%rdi
    34c3:	e8 98 fe ff ff       	call   3360 <_Unwind_Resume@plt>
    34c8:	48 8b 7c 24 20       	mov    0x20(%rsp),%rdi
    34cd:	48 39 df             	cmp    %rbx,%rdi
    34d0:	74 13                	je     34e5 <_ZN8argparselsERSoRKNS_8ArgumentE.isra.0.cold+0x96>
    34d2:	48 8b 44 24 30       	mov    0x30(%rsp),%rax
    34d7:	48 8d 70 01          	lea    0x1(%rax),%rsi
    34db:	c5 f8 77             	vzeroupper 
    34de:	e8 3d fe ff ff       	call   3320 <_ZdlPvm@plt>
    34e3:	eb d2                	jmp    34b7 <_ZN8argparselsERSoRKNS_8ArgumentE.isra.0.cold+0x68>
    34e5:	c5 f8 77             	vzeroupper 
    34e8:	eb cd                	jmp    34b7 <_ZN8argparselsERSoRKNS_8ArgumentE.isra.0.cold+0x68>
    34ea:	4c 89 e7             	mov    %r12,%rdi
    34ed:	c5 f8 77             	vzeroupper 
    34f0:	e8 6b 4e 00 00       	call   8360 <_ZNSt7__cxx1115basic_stringbufIcSt11char_traitsIcESaIcEED1Ev>
    34f5:	48 8b 05 cc 04 01 00 	mov    0x104cc(%rip),%rax        # 139c8 <_ZTTNSt7__cxx1118basic_stringstreamIcSt11char_traitsIcESaIcEEE+0x8>
    34fc:	48 8b 35 ed 04 01 00 	mov    0x104ed(%rip),%rsi        # 139f0 <_ZTTNSt7__cxx1118basic_stringstreamIcSt11char_traitsIcESaIcEEE+0x30>
    3503:	48 8b 40 e8          	mov    -0x18(%rax),%rax
    3507:	48 89 74 04 40       	mov    %rsi,0x40(%rsp,%rax,1)
    350c:	48 8b 05 cd 04 01 00 	mov    0x104cd(%rip),%rax        # 139e0 <_ZTTNSt7__cxx1118basic_stringstreamIcSt11char_traitsIcESaIcEEE+0x20>
    3513:	48 8b 35 ce 04 01 00 	mov    0x104ce(%rip),%rsi        # 139e8 <_ZTTNSt7__cxx1118basic_stringstreamIcSt11char_traitsIcESaIcEEE+0x28>
    351a:	48 89 44 24 50       	mov    %rax,0x50(%rsp)
    351f:	48 8b 40 e8          	mov    -0x18(%rax),%rax
    3523:	48 89 74 04 50       	mov    %rsi,0x50(%rsp,%rax,1)
    3528:	48 8b 05 a1 04 01 00 	mov    0x104a1(%rip),%rax        # 139d0 <_ZTTNSt7__cxx1118basic_stringstreamIcSt11char_traitsIcESaIcEEE+0x10>
    352f:	48 8b 35 a2 04 01 00 	mov    0x104a2(%rip),%rsi        # 139d8 <_ZTTNSt7__cxx1118basic_stringstreamIcSt11char_traitsIcESaIcEEE+0x18>
    3536:	48 89 44 24 40       	mov    %rax,0x40(%rsp)
    353b:	48 8b 40 e8          	mov    -0x18(%rax),%rax
    353f:	48 89 74 04 40       	mov    %rsi,0x40(%rsp,%rax,1)
    3544:	48 c7 44 24 48 00 00 	movq   $0x0,0x48(%rsp)
    354b:	00 00 
    354d:	e9 25 ff ff ff       	jmp    3477 <_ZN8argparselsERSoRKNS_8ArgumentE.isra.0.cold+0x28>
    3552:	c5 f8 77             	vzeroupper 
    3555:	e9 5d ff ff ff       	jmp    34b7 <_ZN8argparselsERSoRKNS_8ArgumentE.isra.0.cold+0x68>

000000000000355a <_ZZN8argparse14ArgumentParserC4ENSt7__cxx1112basic_stringIcSt11char_traitsIcESaIcEEES6_NS_17default_argumentsEENKUlRKT_E_clIS6_EEDaSA_.isra.0.cold>:
    355a:	4c 89 e7             	mov    %r12,%rdi
    355d:	c5 f8 77             	vzeroupper 
    3560:	e8 1b fe ff ff       	call   3380 <_ZNSt7__cxx1118basic_stringstreamIcSt11char_traitsIcESaIcEED1Ev@plt>
    3565:	48 89 ef             	mov    %rbp,%rdi
    3568:	e8 f3 fd ff ff       	call   3360 <_Unwind_Resume@plt>
    356d:	48 8b 3c 24          	mov    (%rsp),%rdi
    3571:	48 8d 44 24 10       	lea    0x10(%rsp),%rax
    3576:	48 39 c7             	cmp    %rax,%rdi
    3579:	74 21                	je     359c <_ZZN8argparse14ArgumentParserC4ENSt7__cxx1112basic_stringIcSt11char_traitsIcESaIcEEES6_NS_17default_argumentsEENKUlRKT_E_clIS6_EEDaSA_.isra.0.cold+0x42>
    357b:	48 8b 44 24 10       	mov    0x10(%rsp),%rax
    3580:	48 8d 70 01          	lea    0x1(%rax),%rsi
    3584:	c5 f8 77             	vzeroupper 
    3587:	e8 94 fd ff ff       	call   3320 <_ZdlPvm@plt>
    358c:	4c 89 e7             	mov    %r12,%rdi
    358f:	e8 ec fd ff ff       	call   3380 <_ZNSt7__cxx1118basic_stringstreamIcSt11char_traitsIcESaIcEED1Ev@plt>
    3594:	48 89 ef             	mov    %rbp,%rdi
    3597:	e8 c4 fd ff ff       	call   3360 <_Unwind_Resume@plt>
    359c:	c5 f8 77             	vzeroupper 
    359f:	eb eb                	jmp    358c <_ZZN8argparse14ArgumentParserC4ENSt7__cxx1112basic_stringIcSt11char_traitsIcESaIcEEES6_NS_17default_argumentsEENKUlRKT_E_clIS6_EEDaSA_.isra.0.cold+0x32>

00000000000035a1 <main.cold>:
    35a1:	31 ff                	xor    %edi,%edi
    35a3:	e8 7a fe ff ff       	call   3422 <_ZSt26__throw_bad_variant_accessb>
    35a8:	48 8b bd 20 fd ff ff 	mov    -0x2e0(%rbp),%rdi
    35af:	48 3b bd 18 fc ff ff 	cmp    -0x3e8(%rbp),%rdi
    35b6:	74 36                	je     35ee <main.cold+0x4d>
    35b8:	48 8b 85 30 fd ff ff 	mov    -0x2d0(%rbp),%rax
    35bf:	48 8d 70 01          	lea    0x1(%rax),%rsi
    35c3:	c5 f8 77             	vzeroupper 
    35c6:	e8 55 fd ff ff       	call   3320 <_ZdlPvm@plt>
    35cb:	4c 89 e7             	mov    %r12,%rdi
    35ce:	e8 ad fd ff ff       	call   3380 <_ZNSt7__cxx1118basic_stringstreamIcSt11char_traitsIcESaIcEED1Ev@plt>
    35d3:	49 89 dc             	mov    %rbx,%r12
    35d6:	4c 89 ef             	mov    %r13,%rdi
    35d9:	e8 b2 5b 00 00       	call   9190 <_ZN8argparse14ArgumentParserD1Ev>
    35de:	4c 89 e7             	mov    %r12,%rdi
    35e1:	e8 7a fd ff ff       	call   3360 <_Unwind_Resume@plt>
    35e6:	49 89 c4             	mov    %rax,%r12
    35e9:	c5 f8 77             	vzeroupper 
    35ec:	eb e8                	jmp    35d6 <main.cold+0x35>
    35ee:	c5 f8 77             	vzeroupper 
    35f1:	eb d8                	jmp    35cb <main.cold+0x2a>
    35f3:	48 8b bd 30 fe ff ff 	mov    -0x1d0(%rbp),%rdi
    35fa:	48 3b bd 28 fc ff ff 	cmp    -0x3d8(%rbp),%rdi
    3601:	74 5e                	je     3661 <main.cold+0xc0>
    3603:	48 8b 85 40 fe ff ff 	mov    -0x1c0(%rbp),%rax
    360a:	48 8d 70 01          	lea    0x1(%rax),%rsi
    360e:	c5 f8 77             	vzeroupper 
    3611:	e8 0a fd ff ff       	call   3320 <_ZdlPvm@plt>
    3616:	eb be                	jmp    35d6 <main.cold+0x35>
    3618:	48 8b 85 30 fe ff ff 	mov    -0x1d0(%rbp),%rax
    361f:	48 85 c0             	test   %rax,%rax
    3622:	74 38                	je     365c <main.cold+0xbb>
    3624:	31 d2                	xor    %edx,%edx
    3626:	4c 89 e6             	mov    %r12,%rsi
    3629:	bf 03 00 00 00       	mov    $0x3,%edi
    362e:	c5 f8 77             	vzeroupper 
    3631:	ff d0                	call   *%rax
    3633:	49 89 dc             	mov    %rbx,%r12
    3636:	eb 9e                	jmp    35d6 <main.cold+0x35>
    3638:	48 8b 85 20 fd ff ff 	mov    -0x2e0(%rbp),%rax
    363f:	48 85 c0             	test   %rax,%rax
    3642:	74 1d                	je     3661 <main.cold+0xc0>
    3644:	48 8b b5 20 fc ff ff 	mov    -0x3e0(%rbp),%rsi
    364b:	31 d2                	xor    %edx,%edx
    364d:	bf 03 00 00 00       	mov    $0x3,%edi
    3652:	c5 f8 77             	vzeroupper 
    3655:	ff d0                	call   *%rax
    3657:	e9 7a ff ff ff       	jmp    35d6 <main.cold+0x35>
    365c:	c5 f8 77             	vzeroupper 
    365f:	eb d2                	jmp    3633 <main.cold+0x92>
    3661:	c5 f8 77             	vzeroupper 
    3664:	e9 6d ff ff ff       	jmp    35d6 <main.cold+0x35>
    3669:	48 ff c8             	dec    %rax
    366c:	0f 85 8e 00 00 00    	jne    3700 <main.cold+0x15f>
    3672:	c5 f8 77             	vzeroupper 
    3675:	e8 86 fb ff ff       	call   3200 <__cxa_begin_catch@plt>
    367a:	48 89 c7             	mov    %rax,%rdi
    367d:	48 8b 00             	mov    (%rax),%rax
    3680:	ff 50 10             	call   *0x10(%rax)
    3683:	48 89 c6             	mov    %rax,%rsi
    3686:	48 8d 3d f3 0a 01 00 	lea    0x10af3(%rip),%rdi        # 14180 <_ZSt4cerr@@Base>
    368d:	e8 8e fa ff ff       	call   3120 <_ZStlsISt11char_traitsIcEERSt13basic_ostreamIcT_ES5_PKc@plt>
    3692:	48 89 c7             	mov    %rax,%rdi
    3695:	e8 66 0f 00 00       	call   4600 <_ZSt4endlIcSt11char_traitsIcEERSt13basic_ostreamIT_T0_ES6_.isra.0>
    369a:	4c 89 ee             	mov    %r13,%rsi
    369d:	48 8d 3d dc 0a 01 00 	lea    0x10adc(%rip),%rdi        # 14180 <_ZSt4cerr@@Base>
    36a4:	e8 77 26 00 00       	call   5d20 <_ZN8argparselsERSoRKNS_14ArgumentParserE.isra.0>
    36a9:	e8 12 fa ff ff       	call   30c0 <__cxa_end_catch@plt>
    36ae:	e9 00 0c 00 00       	jmp    42b3 <main+0xac3>
    36b3:	48 8b 05 16 03 01 00 	mov    0x10316(%rip),%rax        # 139d0 <_ZTTNSt7__cxx1118basic_stringstreamIcSt11char_traitsIcESaIcEEE+0x10>
    36ba:	48 8b 0d 17 03 01 00 	mov    0x10317(%rip),%rcx        # 139d8 <_ZTTNSt7__cxx1118basic_stringstreamIcSt11char_traitsIcESaIcEEE+0x18>
    36c1:	48 89 85 30 fe ff ff 	mov    %rax,-0x1d0(%rbp)
    36c8:	48 8b 40 e8          	mov    -0x18(%rax),%rax
    36cc:	48 89 8c 05 30 fe ff 	mov    %rcx,-0x1d0(%rbp,%rax,1)
    36d3:	ff 
    36d4:	48 c7 85 38 fe ff ff 	movq   $0x0,-0x1c8(%rbp)
    36db:	00 00 00 00 
    36df:	c5 f8 77             	vzeroupper 
    36e2:	48 8d 05 ff 01 01 00 	lea    0x101ff(%rip),%rax        # 138e8 <_ZTVSt9basic_iosIcSt11char_traitsIcEE+0x10>
    36e9:	4c 89 ff             	mov    %r15,%rdi
    36ec:	48 89 85 b0 fe ff ff 	mov    %rax,-0x150(%rbp)
    36f3:	49 89 dc             	mov    %rbx,%r12
    36f6:	e8 a5 f9 ff ff       	call   30a0 <_ZNSt8ios_baseD2Ev@plt>
    36fb:	e9 d6 fe ff ff       	jmp    35d6 <main.cold+0x35>
    3700:	49 89 fc             	mov    %rdi,%r12
    3703:	c5 f8 77             	vzeroupper 
    3706:	e9 cb fe ff ff       	jmp    35d6 <main.cold+0x35>
    370b:	49 89 c4             	mov    %rax,%r12
    370e:	c5 f8 77             	vzeroupper 
    3711:	e8 aa f9 ff ff       	call   30c0 <__cxa_end_catch@plt>
    3716:	e9 bb fe ff ff       	jmp    35d6 <main.cold+0x35>
    371b:	48 8b bd 20 fd ff ff 	mov    -0x2e0(%rbp),%rdi
    3722:	48 8d 85 30 fd ff ff 	lea    -0x2d0(%rbp),%rax
    3729:	48 39 c7             	cmp    %rax,%rdi
    372c:	74 3e                	je     376c <main.cold+0x1cb>
    372e:	48 8b 85 30 fd ff ff 	mov    -0x2d0(%rbp),%rax
    3735:	48 8d 70 01          	lea    0x1(%rax),%rsi
    3739:	c5 f8 77             	vzeroupper 
    373c:	e8 df fb ff ff       	call   3320 <_ZdlPvm@plt>
    3741:	48 8b bd 30 fe ff ff 	mov    -0x1d0(%rbp),%rdi
    3748:	48 8d 85 40 fe ff ff 	lea    -0x1c0(%rbp),%rax
    374f:	48 39 c7             	cmp    %rax,%rdi
    3752:	74 10                	je     3764 <main.cold+0x1c3>
    3754:	48 8b 85 40 fe ff ff 	mov    -0x1c0(%rbp),%rax
    375b:	48 8d 70 01          	lea    0x1(%rax),%rsi
    375f:	e8 bc fb ff ff       	call   3320 <_ZdlPvm@plt>
    3764:	4c 89 e7             	mov    %r12,%rdi
    3767:	e8 f4 fb ff ff       	call   3360 <_Unwind_Resume@plt>
    376c:	c5 f8 77             	vzeroupper 
    376f:	eb d0                	jmp    3741 <main.cold+0x1a0>
    3771:	48 8b bd f0 fb ff ff 	mov    -0x410(%rbp),%rdi
    3778:	c5 f8 77             	vzeroupper 
    377b:	e8 e0 4b 00 00       	call   8360 <_ZNSt7__cxx1115basic_stringbufIcSt11char_traitsIcESaIcEED1Ev>
    3780:	48 8b 05 41 02 01 00 	mov    0x10241(%rip),%rax        # 139c8 <_ZTTNSt7__cxx1118basic_stringstreamIcSt11char_traitsIcESaIcEEE+0x8>
    3787:	48 8b 0d 62 02 01 00 	mov    0x10262(%rip),%rcx        # 139f0 <_ZTTNSt7__cxx1118basic_stringstreamIcSt11char_traitsIcESaIcEEE+0x30>
    378e:	48 8b 40 e8          	mov    -0x18(%rax),%rax
    3792:	48 89 8c 05 30 fe ff 	mov    %rcx,-0x1d0(%rbp,%rax,1)
    3799:	ff 
    379a:	48 8b 05 3f 02 01 00 	mov    0x1023f(%rip),%rax        # 139e0 <_ZTTNSt7__cxx1118basic_stringstreamIcSt11char_traitsIcESaIcEEE+0x20>
    37a1:	48 8b 0d 40 02 01 00 	mov    0x10240(%rip),%rcx        # 139e8 <_ZTTNSt7__cxx1118basic_stringstreamIcSt11char_traitsIcESaIcEEE+0x28>
    37a8:	48 89 85 40 fe ff ff 	mov    %rax,-0x1c0(%rbp)
    37af:	48 8b 40 e8          	mov    -0x18(%rax),%rax
    37b3:	48 89 8c 05 40 fe ff 	mov    %rcx,-0x1c0(%rbp,%rax,1)
    37ba:	ff 
    37bb:	48 8b 05 0e 02 01 00 	mov    0x1020e(%rip),%rax        # 139d0 <_ZTTNSt7__cxx1118basic_stringstreamIcSt11char_traitsIcESaIcEEE+0x10>
    37c2:	48 8b 0d 0f 02 01 00 	mov    0x1020f(%rip),%rcx        # 139d8 <_ZTTNSt7__cxx1118basic_stringstreamIcSt11char_traitsIcESaIcEEE+0x18>
    37c9:	48 89 85 30 fe ff ff 	mov    %rax,-0x1d0(%rbp)
    37d0:	48 8b 40 e8          	mov    -0x18(%rax),%rax
    37d4:	48 89 8c 05 30 fe ff 	mov    %rcx,-0x1d0(%rbp,%rax,1)
    37db:	ff 
    37dc:	48 c7 85 38 fe ff ff 	movq   $0x0,-0x1c8(%rbp)
    37e3:	00 00 00 00 
    37e7:	e9 f6 fe ff ff       	jmp    36e2 <main.cold+0x141>
    37ec:	0f 1f 40 00          	nopl   0x0(%rax)

00000000000037f0 <main>:
    37f0:	4c 8d 54 24 08       	lea    0x8(%rsp),%r10
    37f5:	48 83 e4 e0          	and    $0xffffffffffffffe0,%rsp
    37f9:	41 ff 72 f8          	push   -0x8(%r10)
    37fd:	ba 26 00 00 00       	mov    $0x26,%edx
    3802:	55                   	push   %rbp
    3803:	48 89 e5             	mov    %rsp,%rbp
    3806:	41 57                	push   %r15
    3808:	41 56                	push   %r14
    380a:	41 55                	push   %r13
    380c:	41 54                	push   %r12
    380e:	4c 8d a5 30 fe ff ff 	lea    -0x1d0(%rbp),%r12
    3815:	41 52                	push   %r10
    3817:	53                   	push   %rbx
    3818:	48 81 ec e0 03 00 00 	sub    $0x3e0,%rsp
    381f:	89 bd 14 fc ff ff    	mov    %edi,-0x3ec(%rbp)
    3825:	48 89 b5 08 fc ff ff 	mov    %rsi,-0x3f8(%rbp)
    382c:	48 8d 3d 0d 08 01 00 	lea    0x1080d(%rip),%rdi        # 14040 <_ZSt4cout@@Base>
    3833:	48 8d 35 ae cb 00 00 	lea    0xcbae(%rip),%rsi        # 103e8 <_fini+0x11c7>
    383a:	64 48 8b 04 25 28 00 	mov    %fs:0x28,%rax
    3841:	00 00 
    3843:	48 89 45 c8          	mov    %rax,-0x38(%rbp)
    3847:	31 c0                	xor    %eax,%eax
    3849:	e8 52 fb ff ff       	call   33a0 <_ZSt16__ostream_insertIcSt11char_traitsIcEERSt13basic_ostreamIT_T0_ES6_PKS3_l@plt>
    384e:	48 8d 3d eb 07 01 00 	lea    0x107eb(%rip),%rdi        # 14040 <_ZSt4cout@@Base>
    3855:	e8 a6 0d 00 00       	call   4600 <_ZSt4endlIcSt11char_traitsIcEERSt13basic_ostreamIT_T0_ES6_.isra.0>
    385a:	ba 24 00 00 00       	mov    $0x24,%edx
    385f:	48 8d 35 aa cb 00 00 	lea    0xcbaa(%rip),%rsi        # 10410 <_fini+0x11ef>
    3866:	48 8d 3d d3 07 01 00 	lea    0x107d3(%rip),%rdi        # 14040 <_ZSt4cout@@Base>
    386d:	e8 2e fb ff ff       	call   33a0 <_ZSt16__ostream_insertIcSt11char_traitsIcEERSt13basic_ostreamIT_T0_ES6_PKS3_l@plt>
    3872:	48 8d 3d c7 07 01 00 	lea    0x107c7(%rip),%rdi        # 14040 <_ZSt4cout@@Base>
    3879:	e8 82 0d 00 00       	call   4600 <_ZSt4endlIcSt11char_traitsIcEERSt13basic_ostreamIT_T0_ES6_.isra.0>
    387e:	ba 25 00 00 00       	mov    $0x25,%edx
    3883:	48 8d 35 ae cb 00 00 	lea    0xcbae(%rip),%rsi        # 10438 <_fini+0x1217>
    388a:	48 8d 3d af 07 01 00 	lea    0x107af(%rip),%rdi        # 14040 <_ZSt4cout@@Base>
    3891:	e8 0a fb ff ff       	call   33a0 <_ZSt16__ostream_insertIcSt11char_traitsIcEERSt13basic_ostreamIT_T0_ES6_PKS3_l@plt>
    3896:	48 8d 3d a3 07 01 00 	lea    0x107a3(%rip),%rdi        # 14040 <_ZSt4cout@@Base>
    389d:	e8 5e 0d 00 00       	call   4600 <_ZSt4endlIcSt11char_traitsIcEERSt13basic_ostreamIT_T0_ES6_.isra.0>
    38a2:	48 8d 35 4b c9 00 00 	lea    0xc94b(%rip),%rsi        # 101f4 <_fini+0xfd3>
    38a9:	4c 89 e7             	mov    %r12,%rdi
    38ac:	e8 3f 10 00 00       	call   48f0 <_ZNSt7__cxx1112basic_stringIcSt11char_traitsIcESaIcEEC2IS3_EEPKcRKS3_.constprop.0>
    38b1:	48 8d 85 20 fd ff ff 	lea    -0x2e0(%rbp),%rax
    38b8:	48 8d 35 39 c9 00 00 	lea    0xc939(%rip),%rsi        # 101f8 <_fini+0xfd7>
    38bf:	48 89 c7             	mov    %rax,%rdi
    38c2:	48 89 85 20 fc ff ff 	mov    %rax,-0x3e0(%rbp)
    38c9:	48 89 c3             	mov    %rax,%rbx
    38cc:	e8 1f 10 00 00       	call   48f0 <_ZNSt7__cxx1112basic_stringIcSt11char_traitsIcESaIcEEC2IS3_EEPKcRKS3_.constprop.0>
    38d1:	4c 8d ad 40 fd ff ff 	lea    -0x2c0(%rbp),%r13
    38d8:	b9 03 00 00 00       	mov    $0x3,%ecx
    38dd:	4c 89 e2             	mov    %r12,%rdx
    38e0:	48 89 de             	mov    %rbx,%rsi
    38e3:	4c 89 ef             	mov    %r13,%rdi
    38e6:	e8 45 9a 00 00       	call   d330 <_ZN8argparse14ArgumentParserC1ENSt7__cxx1112basic_stringIcSt11char_traitsIcESaIcEEES6_NS_17default_argumentsE>
    38eb:	48 8b bd 20 fd ff ff 	mov    -0x2e0(%rbp),%rdi
    38f2:	48 8d 85 30 fd ff ff 	lea    -0x2d0(%rbp),%rax
    38f9:	48 89 85 18 fc ff ff 	mov    %rax,-0x3e8(%rbp)
    3900:	48 39 c7             	cmp    %rax,%rdi
    3903:	74 10                	je     3915 <main+0x125>
    3905:	48 8b 85 30 fd ff ff 	mov    -0x2d0(%rbp),%rax
    390c:	48 8d 70 01          	lea    0x1(%rax),%rsi
    3910:	e8 0b fa ff ff       	call   3320 <_ZdlPvm@plt>
    3915:	48 8b bd 30 fe ff ff 	mov    -0x1d0(%rbp),%rdi
    391c:	48 8d 85 40 fe ff ff 	lea    -0x1c0(%rbp),%rax
    3923:	48 89 85 28 fc ff ff 	mov    %rax,-0x3d8(%rbp)
    392a:	48 39 c7             	cmp    %rax,%rdi
    392d:	74 10                	je     393f <main+0x14f>
    392f:	48 8b 85 40 fe ff ff 	mov    -0x1c0(%rbp),%rax
    3936:	48 8d 70 01          	lea    0x1(%rax),%rsi
    393a:	e8 e1 f9 ff ff       	call   3320 <_ZdlPvm@plt>
    393f:	ba 04 00 00 00       	mov    $0x4,%edx
    3944:	48 8d 35 b5 c8 00 00 	lea    0xc8b5(%rip),%rsi        # 10200 <_fini+0xfdf>
    394b:	48 8d 3d ee 06 01 00 	lea    0x106ee(%rip),%rdi        # 14040 <_ZSt4cout@@Base>
    3952:	e8 49 fa ff ff       	call   33a0 <_ZSt16__ostream_insertIcSt11char_traitsIcEERSt13basic_ostreamIT_T0_ES6_PKS3_l@plt>
    3957:	48 8d 3d e2 06 01 00 	lea    0x106e2(%rip),%rdi        # 14040 <_ZSt4cout@@Base>
    395e:	e8 9d 0c 00 00       	call   4600 <_ZSt4endlIcSt11char_traitsIcEERSt13basic_ostreamIT_T0_ES6_.isra.0>
    3963:	ba 0f 00 00 00       	mov    $0xf,%edx
    3968:	48 8d 35 96 c8 00 00 	lea    0xc896(%rip),%rsi        # 10205 <_fini+0xfe4>
    396f:	48 8d 3d ca 06 01 00 	lea    0x106ca(%rip),%rdi        # 14040 <_ZSt4cout@@Base>
    3976:	e8 25 fa ff ff       	call   33a0 <_ZSt16__ostream_insertIcSt11char_traitsIcEERSt13basic_ostreamIT_T0_ES6_PKS3_l@plt>
    397b:	48 8d 3d be 06 01 00 	lea    0x106be(%rip),%rdi        # 14040 <_ZSt4cout@@Base>
    3982:	e8 79 0c 00 00       	call   4600 <_ZSt4endlIcSt11char_traitsIcEERSt13basic_ostreamIT_T0_ES6_.isra.0>
    3987:	48 8d 35 87 c8 00 00 	lea    0xc887(%rip),%rsi        # 10215 <_fini+0xff4>
    398e:	4c 89 ef             	mov    %r13,%rdi
    3991:	e8 0a ac 00 00       	call   e5a0 <_ZN8argparse14ArgumentParser12add_argumentIJPKcEEERNS_8ArgumentEDpT_>
    3996:	80 88 d9 00 00 00 02 	orb    $0x2,0xd9(%rax)
    399d:	4c 8d b5 40 fc ff ff 	lea    -0x3c0(%rbp),%r14
    39a4:	48 8d 35 76 c8 00 00 	lea    0xc876(%rip),%rsi        # 10221 <_fini+0x1000>
    39ab:	4c 89 f7             	mov    %r14,%rdi
    39ae:	48 89 c3             	mov    %rax,%rbx
    39b1:	e8 3a 0f 00 00       	call   48f0 <_ZNSt7__cxx1112basic_stringIcSt11char_traitsIcESaIcEEC2IS3_EEPKcRKS3_.constprop.0>
    39b6:	48 8d 7b 28          	lea    0x28(%rbx),%rdi
    39ba:	4c 89 f6             	mov    %r14,%rsi
    39bd:	e8 ae 0c 00 00       	call   4670 <_ZNSt7__cxx1112basic_stringIcSt11char_traitsIcESaIcEEaSEOS4_.isra.0>
    39c2:	48 8b bd 40 fc ff ff 	mov    -0x3c0(%rbp),%rdi
    39c9:	48 8d 85 50 fc ff ff 	lea    -0x3b0(%rbp),%rax
    39d0:	48 39 c7             	cmp    %rax,%rdi
    39d3:	74 10                	je     39e5 <main+0x1f5>
    39d5:	48 8b 85 50 fc ff ff 	mov    -0x3b0(%rbp),%rax
    39dc:	48 8d 70 01          	lea    0x1(%rax),%rsi
    39e0:	e8 3b f9 ff ff       	call   3320 <_ZdlPvm@plt>
    39e5:	48 8d 35 46 c8 00 00 	lea    0xc846(%rip),%rsi        # 10232 <_fini+0x1011>
    39ec:	4c 89 ef             	mov    %r13,%rdi
    39ef:	e8 ac ab 00 00       	call   e5a0 <_ZN8argparse14ArgumentParser12add_argumentIJPKcEEERNS_8ArgumentEDpT_>
    39f4:	4c 8d b5 38 fc ff ff 	lea    -0x3c8(%rbp),%r14
    39fb:	48 89 c7             	mov    %rax,%rdi
    39fe:	4c 89 f6             	mov    %r14,%rsi
    3a01:	c7 85 38 fc ff ff 78 	movl   $0x78,-0x3c8(%rbp)
    3a08:	00 00 00 
    3a0b:	e8 90 5c 00 00       	call   96a0 <_ZN8argparse8Argument13default_valueIiEERS0_OT_>
    3a10:	48 8d b8 88 00 00 00 	lea    0x88(%rax),%rdi
    3a17:	48 89 c3             	mov    %rax,%rbx
    3a1a:	e8 91 1d 00 00       	call   57b0 <_ZNSt7variantIJSt8functionIFSt3anyRKNSt7__cxx1112basic_stringIcSt11char_traitsIcESaIcEEEEES0_IFvS9_EEEE7emplaceILm0EJN8argparse7details12parse_numberIiLi0EEEEEENSt9enable_ifIX18is_constructible_vINSt19variant_alternativeIXT_ESE_E4typeEDpT0_EERSN_E4typeEDpOSO_.isra.0>
    3a1f:	4c 8d bd 60 fc ff ff 	lea    -0x3a0(%rbp),%r15
    3a26:	48 8d 35 12 c8 00 00 	lea    0xc812(%rip),%rsi        # 1023f <_fini+0x101e>
    3a2d:	4c 89 ff             	mov    %r15,%rdi
    3a30:	e8 bb 0e 00 00       	call   48f0 <_ZNSt7__cxx1112basic_stringIcSt11char_traitsIcESaIcEEC2IS3_EEPKcRKS3_.constprop.0>
    3a35:	48 8d 7b 28          	lea    0x28(%rbx),%rdi
    3a39:	4c 89 fe             	mov    %r15,%rsi
    3a3c:	e8 2f 0c 00 00       	call   4670 <_ZNSt7__cxx1112basic_stringIcSt11char_traitsIcESaIcEEaSEOS4_.isra.0>
    3a41:	48 8b bd 60 fc ff ff 	mov    -0x3a0(%rbp),%rdi
    3a48:	48 8d 85 70 fc ff ff 	lea    -0x390(%rbp),%rax
    3a4f:	48 39 c7             	cmp    %rax,%rdi
    3a52:	74 10                	je     3a64 <main+0x274>
    3a54:	48 8b 85 70 fc ff ff 	mov    -0x390(%rbp),%rax
    3a5b:	48 8d 70 01          	lea    0x1(%rax),%rsi
    3a5f:	e8 bc f8 ff ff       	call   3320 <_ZdlPvm@plt>
    3a64:	48 8d 35 e6 c7 00 00 	lea    0xc7e6(%rip),%rsi        # 10251 <_fini+0x1030>
    3a6b:	4c 89 ef             	mov    %r13,%rdi
    3a6e:	e8 2d ab 00 00       	call   e5a0 <_ZN8argparse14ArgumentParser12add_argumentIJPKcEEERNS_8ArgumentEDpT_>
    3a73:	4c 8d bd b0 fe ff ff 	lea    -0x150(%rbp),%r15
    3a7a:	4c 89 ff             	mov    %r15,%rdi
    3a7d:	48 89 c3             	mov    %rax,%rbx
    3a80:	e8 7b f6 ff ff       	call   3100 <_ZNSt8ios_baseC2Ev@plt>
    3a85:	48 8d 05 5c fe 00 00 	lea    0xfe5c(%rip),%rax        # 138e8 <_ZTVSt9basic_iosIcSt11char_traitsIcEE+0x10>
    3a8c:	48 89 85 b0 fe ff ff 	mov    %rax,-0x150(%rbp)
    3a93:	31 c0                	xor    %eax,%eax
    3a95:	66 89 45 90          	mov    %ax,-0x70(%rbp)
    3a99:	c5 f9 ef c0          	vpxor  %xmm0,%xmm0,%xmm0
    3a9d:	48 8b 05 2c ff 00 00 	mov    0xff2c(%rip),%rax        # 139d0 <_ZTTNSt7__cxx1118basic_stringstreamIcSt11char_traitsIcESaIcEEE+0x10>
    3aa4:	c5 fe 7f 45 98       	vmovdqu %ymm0,-0x68(%rbp)
    3aa9:	48 89 85 30 fe ff ff 	mov    %rax,-0x1d0(%rbp)
    3ab0:	48 8b 0d 21 ff 00 00 	mov    0xff21(%rip),%rcx        # 139d8 <_ZTTNSt7__cxx1118basic_stringstreamIcSt11char_traitsIcESaIcEEE+0x18>
    3ab7:	48 8b 40 e8          	mov    -0x18(%rax),%rax
    3abb:	48 c7 45 88 00 00 00 	movq   $0x0,-0x78(%rbp)
    3ac2:	00 
    3ac3:	48 89 8c 05 30 fe ff 	mov    %rcx,-0x1d0(%rbp,%rax,1)
    3aca:	ff 
    3acb:	48 c7 85 38 fe ff ff 	movq   $0x0,-0x1c8(%rbp)
    3ad2:	00 00 00 00 
    3ad6:	48 8b 05 f3 fe 00 00 	mov    0xfef3(%rip),%rax        # 139d0 <_ZTTNSt7__cxx1118basic_stringstreamIcSt11char_traitsIcESaIcEEE+0x10>
    3add:	31 f6                	xor    %esi,%esi
    3adf:	48 8b 78 e8          	mov    -0x18(%rax),%rdi
    3ae3:	4c 01 e7             	add    %r12,%rdi
    3ae6:	c5 f8 77             	vzeroupper 
    3ae9:	e8 42 f5 ff ff       	call   3030 <_ZNSt9basic_iosIcSt11char_traitsIcEE4initEPSt15basic_streambufIcS1_E@plt>
    3aee:	48 8b 05 eb fe 00 00 	mov    0xfeeb(%rip),%rax        # 139e0 <_ZTTNSt7__cxx1118basic_stringstreamIcSt11char_traitsIcESaIcEEE+0x20>
    3af5:	48 8b bd 28 fc ff ff 	mov    -0x3d8(%rbp),%rdi
    3afc:	48 89 85 40 fe ff ff 	mov    %rax,-0x1c0(%rbp)
    3b03:	48 03 78 e8          	add    -0x18(%rax),%rdi
    3b07:	48 8b 05 da fe 00 00 	mov    0xfeda(%rip),%rax        # 139e8 <_ZTTNSt7__cxx1118basic_stringstreamIcSt11char_traitsIcESaIcEEE+0x28>
    3b0e:	31 f6                	xor    %esi,%esi
    3b10:	48 89 07             	mov    %rax,(%rdi)
    3b13:	e8 18 f5 ff ff       	call   3030 <_ZNSt9basic_iosIcSt11char_traitsIcEE4initEPSt15basic_streambufIcS1_E@plt>
    3b18:	48 8b 05 a9 fe 00 00 	mov    0xfea9(%rip),%rax        # 139c8 <_ZTTNSt7__cxx1118basic_stringstreamIcSt11char_traitsIcESaIcEEE+0x8>
    3b1f:	48 8b 0d ca fe 00 00 	mov    0xfeca(%rip),%rcx        # 139f0 <_ZTTNSt7__cxx1118basic_stringstreamIcSt11char_traitsIcESaIcEEE+0x30>
    3b26:	48 8b 40 e8          	mov    -0x18(%rax),%rax
    3b2a:	48 89 8c 05 30 fe ff 	mov    %rcx,-0x1d0(%rbp,%rax,1)
    3b31:	ff 
    3b32:	48 8d 05 7f ff 00 00 	lea    0xff7f(%rip),%rax        # 13ab8 <_ZTVNSt7__cxx1118basic_stringstreamIcSt11char_traitsIcESaIcEEE+0x18>
    3b39:	48 89 85 30 fe ff ff 	mov    %rax,-0x1d0(%rbp)
    3b40:	48 83 c0 50          	add    $0x50,%rax
    3b44:	48 89 85 b0 fe ff ff 	mov    %rax,-0x150(%rbp)
    3b4b:	48 83 e8 28          	sub    $0x28,%rax
    3b4f:	48 89 85 40 fe ff ff 	mov    %rax,-0x1c0(%rbp)
    3b56:	48 8d 05 d3 fd 00 00 	lea    0xfdd3(%rip),%rax        # 13930 <_ZTVSt15basic_streambufIcSt11char_traitsIcEE+0x10>
    3b5d:	48 89 85 48 fe ff ff 	mov    %rax,-0x1b8(%rbp)
    3b64:	48 8d 85 80 fe ff ff 	lea    -0x180(%rbp),%rax
    3b6b:	48 89 c7             	mov    %rax,%rdi
    3b6e:	48 89 85 00 fc ff ff 	mov    %rax,-0x400(%rbp)
    3b75:	48 c7 85 50 fe ff ff 	movq   $0x0,-0x1b0(%rbp)
    3b7c:	00 00 00 00 
    3b80:	48 c7 85 58 fe ff ff 	movq   $0x0,-0x1a8(%rbp)
    3b87:	00 00 00 00 
    3b8b:	48 c7 85 60 fe ff ff 	movq   $0x0,-0x1a0(%rbp)
    3b92:	00 00 00 00 
    3b96:	48 c7 85 68 fe ff ff 	movq   $0x0,-0x198(%rbp)
    3b9d:	00 00 00 00 
    3ba1:	48 c7 85 70 fe ff ff 	movq   $0x0,-0x190(%rbp)
    3ba8:	00 00 00 00 
    3bac:	48 c7 85 78 fe ff ff 	movq   $0x0,-0x188(%rbp)
    3bb3:	00 00 00 00 
    3bb7:	e8 54 f5 ff ff       	call   3110 <_ZNSt6localeC1Ev@plt>
    3bbc:	48 8d 05 5d fe 00 00 	lea    0xfe5d(%rip),%rax        # 13a20 <_ZTVNSt7__cxx1115basic_stringbufIcSt11char_traitsIcESaIcEEE+0x10>
    3bc3:	48 89 85 48 fe ff ff 	mov    %rax,-0x1b8(%rbp)
    3bca:	48 8d 85 a0 fe ff ff 	lea    -0x160(%rbp),%rax
    3bd1:	48 89 85 f8 fb ff ff 	mov    %rax,-0x408(%rbp)
    3bd8:	48 89 85 90 fe ff ff 	mov    %rax,-0x170(%rbp)
    3bdf:	48 8d 85 48 fe ff ff 	lea    -0x1b8(%rbp),%rax
    3be6:	48 89 c6             	mov    %rax,%rsi
    3be9:	4c 89 ff             	mov    %r15,%rdi
    3bec:	c7 85 88 fe ff ff 18 	movl   $0x18,-0x178(%rbp)
    3bf3:	00 00 00 
    3bf6:	48 c7 85 98 fe ff ff 	movq   $0x0,-0x168(%rbp)
    3bfd:	00 00 00 00 
    3c01:	c6 85 a0 fe ff ff 00 	movb   $0x0,-0x160(%rbp)
    3c08:	48 89 85 f0 fb ff ff 	mov    %rax,-0x410(%rbp)
    3c0f:	e8 1c f4 ff ff       	call   3030 <_ZNSt9basic_iosIcSt11char_traitsIcEE4initEPSt15basic_streambufIcS1_E@plt>
    3c14:	c5 fb 10 05 f4 cb 00 	vmovsd 0xcbf4(%rip),%xmm0        # 10810 <_ZTSN8argparse7details12parse_numberIfLNS0_12chars_formatE3EEE+0xb0>
    3c1b:	00 
    3c1c:	48 8b bd 28 fc ff ff 	mov    -0x3d8(%rbp),%rdi
    3c23:	e8 08 f5 ff ff       	call   3130 <_ZNSo9_M_insertIdEERSoT_@plt>
    3c28:	48 8b 85 18 fc ff ff 	mov    -0x3e8(%rbp),%rax
    3c2f:	48 c7 85 28 fd ff ff 	movq   $0x0,-0x2d8(%rbp)
    3c36:	00 00 00 00 
    3c3a:	48 89 85 20 fd ff ff 	mov    %rax,-0x2e0(%rbp)
    3c41:	48 8b 85 70 fe ff ff 	mov    -0x190(%rbp),%rax
    3c48:	c6 85 30 fd ff ff 00 	movb   $0x0,-0x2d0(%rbp)
    3c4f:	48 85 c0             	test   %rax,%rax
    3c52:	0f 84 2c 07 00 00    	je     4384 <main+0xb94>
    3c58:	4c 8b 85 60 fe ff ff 	mov    -0x1a0(%rbp),%r8
    3c5f:	48 8b 8d 68 fe ff ff 	mov    -0x198(%rbp),%rcx
    3c66:	4c 39 c0             	cmp    %r8,%rax
    3c69:	0f 87 9d 06 00 00    	ja     430c <main+0xb1c>
    3c6f:	48 8b bd 20 fc ff ff 	mov    -0x3e0(%rbp),%rdi
    3c76:	49 29 c8             	sub    %rcx,%r8
    3c79:	31 d2                	xor    %edx,%edx
    3c7b:	31 f6                	xor    %esi,%esi
    3c7d:	e8 2e f5 ff ff       	call   31b0 <_ZNSt7__cxx1112basic_stringIcSt11char_traitsIcESaIcEE10_M_replaceEmmPKcm@plt>
    3c82:	48 8d 05 2f fe 00 00 	lea    0xfe2f(%rip),%rax        # 13ab8 <_ZTVNSt7__cxx1118basic_stringstreamIcSt11char_traitsIcESaIcEEE+0x18>
    3c89:	48 89 85 30 fe ff ff 	mov    %rax,-0x1d0(%rbp)
    3c90:	c5 fa 7e 0d 10 ff 00 	vmovq  0xff10(%rip),%xmm1        # 13ba8 <_ZTVNSt7__cxx1118basic_stringstreamIcSt11char_traitsIcESaIcEEE@@Base+0x108>
    3c97:	00 
    3c98:	48 83 c0 50          	add    $0x50,%rax
    3c9c:	48 89 85 b0 fe ff ff 	mov    %rax,-0x150(%rbp)
    3ca3:	48 8b bd 90 fe ff ff 	mov    -0x170(%rbp),%rdi
    3caa:	48 8d 05 6f fd 00 00 	lea    0xfd6f(%rip),%rax        # 13a20 <_ZTVNSt7__cxx1115basic_stringbufIcSt11char_traitsIcESaIcEEE+0x10>
    3cb1:	c4 e3 f1 22 c0 01    	vpinsrq $0x1,%rax,%xmm1,%xmm0
    3cb7:	c5 f9 7f 85 40 fe ff 	vmovdqa %xmm0,-0x1c0(%rbp)
    3cbe:	ff 
    3cbf:	48 3b bd f8 fb ff ff 	cmp    -0x408(%rbp),%rdi
    3cc6:	74 10                	je     3cd8 <main+0x4e8>
    3cc8:	48 8b 85 a0 fe ff ff 	mov    -0x160(%rbp),%rax
    3ccf:	48 8d 70 01          	lea    0x1(%rax),%rsi
    3cd3:	e8 48 f6 ff ff       	call   3320 <_ZdlPvm@plt>
    3cd8:	48 8b bd 00 fc ff ff 	mov    -0x400(%rbp),%rdi
    3cdf:	48 8d 05 4a fc 00 00 	lea    0xfc4a(%rip),%rax        # 13930 <_ZTVSt15basic_streambufIcSt11char_traitsIcEE+0x10>
    3ce6:	48 89 85 48 fe ff ff 	mov    %rax,-0x1b8(%rbp)
    3ced:	e8 3e f5 ff ff       	call   3230 <_ZNSt6localeD1Ev@plt>
    3cf2:	48 8b 05 cf fc 00 00 	mov    0xfccf(%rip),%rax        # 139c8 <_ZTTNSt7__cxx1118basic_stringstreamIcSt11char_traitsIcESaIcEEE+0x8>
    3cf9:	48 8b 0d f0 fc 00 00 	mov    0xfcf0(%rip),%rcx        # 139f0 <_ZTTNSt7__cxx1118basic_stringstreamIcSt11char_traitsIcESaIcEEE+0x30>
    3d00:	48 8b 40 e8          	mov    -0x18(%rax),%rax
    3d04:	4c 89 ff             	mov    %r15,%rdi
    3d07:	48 89 8c 05 30 fe ff 	mov    %rcx,-0x1d0(%rbp,%rax,1)
    3d0e:	ff 
    3d0f:	48 8b 05 ca fc 00 00 	mov    0xfcca(%rip),%rax        # 139e0 <_ZTTNSt7__cxx1118basic_stringstreamIcSt11char_traitsIcESaIcEEE+0x20>
    3d16:	48 8b 0d cb fc 00 00 	mov    0xfccb(%rip),%rcx        # 139e8 <_ZTTNSt7__cxx1118basic_stringstreamIcSt11char_traitsIcESaIcEEE+0x28>
    3d1d:	48 89 85 40 fe ff ff 	mov    %rax,-0x1c0(%rbp)
    3d24:	48 8b 40 e8          	mov    -0x18(%rax),%rax
    3d28:	48 89 8c 05 40 fe ff 	mov    %rcx,-0x1c0(%rbp,%rax,1)
    3d2f:	ff 
    3d30:	48 8b 05 99 fc 00 00 	mov    0xfc99(%rip),%rax        # 139d0 <_ZTTNSt7__cxx1118basic_stringstreamIcSt11char_traitsIcESaIcEEE+0x10>
    3d37:	48 8b 0d 9a fc 00 00 	mov    0xfc9a(%rip),%rcx        # 139d8 <_ZTTNSt7__cxx1118basic_stringstreamIcSt11char_traitsIcESaIcEEE+0x18>
    3d3e:	48 89 85 30 fe ff ff 	mov    %rax,-0x1d0(%rbp)
    3d45:	48 8b 40 e8          	mov    -0x18(%rax),%rax
    3d49:	48 89 8c 05 30 fe ff 	mov    %rcx,-0x1d0(%rbp,%rax,1)
    3d50:	ff 
    3d51:	48 8d 05 90 fb 00 00 	lea    0xfb90(%rip),%rax        # 138e8 <_ZTVSt9basic_iosIcSt11char_traitsIcEE+0x10>
    3d58:	48 c7 85 38 fe ff ff 	movq   $0x0,-0x1c8(%rbp)
    3d5f:	00 00 00 00 
    3d63:	48 89 85 b0 fe ff ff 	mov    %rax,-0x150(%rbp)
    3d6a:	e8 31 f3 ff ff       	call   30a0 <_ZNSt8ios_baseD2Ev@plt>
    3d6f:	48 8b 95 20 fd ff ff 	mov    -0x2e0(%rbp),%rdx
    3d76:	48 8b 7b 58          	mov    0x58(%rbx),%rdi
    3d7a:	48 3b 95 18 fc ff ff 	cmp    -0x3e8(%rbp),%rdx
    3d81:	0f 84 a0 05 00 00    	je     4327 <main+0xb37>
    3d87:	48 8d 73 68          	lea    0x68(%rbx),%rsi
    3d8b:	48 8b 8d 30 fd ff ff 	mov    -0x2d0(%rbp),%rcx
    3d92:	48 8b 85 28 fd ff ff 	mov    -0x2d8(%rbp),%rax
    3d99:	48 39 f7             	cmp    %rsi,%rdi
    3d9c:	0f 84 bb 05 00 00    	je     435d <main+0xb6d>
    3da2:	c4 e1 f9 6e d0       	vmovq  %rax,%xmm2
    3da7:	c4 e3 e9 22 c1 01    	vpinsrq $0x1,%rcx,%xmm2,%xmm0
    3dad:	48 8b 73 68          	mov    0x68(%rbx),%rsi
    3db1:	48 89 53 58          	mov    %rdx,0x58(%rbx)
    3db5:	c5 fa 7f 43 60       	vmovdqu %xmm0,0x60(%rbx)
    3dba:	48 85 ff             	test   %rdi,%rdi
    3dbd:	0f 84 ae 05 00 00    	je     4371 <main+0xb81>
    3dc3:	48 89 bd 20 fd ff ff 	mov    %rdi,-0x2e0(%rbp)
    3dca:	48 89 b5 30 fd ff ff 	mov    %rsi,-0x2d0(%rbp)
    3dd1:	48 8b 85 20 fd ff ff 	mov    -0x2e0(%rbp),%rax
    3dd8:	48 c7 85 28 fd ff ff 	movq   $0x0,-0x2d8(%rbp)
    3ddf:	00 00 00 00 
    3de3:	c6 00 00             	movb   $0x0,(%rax)
    3de6:	48 8b bd 20 fd ff ff 	mov    -0x2e0(%rbp),%rdi
    3ded:	48 3b bd 18 fc ff ff 	cmp    -0x3e8(%rbp),%rdi
    3df4:	74 10                	je     3e06 <main+0x616>
    3df6:	48 8b 85 30 fd ff ff 	mov    -0x2d0(%rbp),%rax
    3dfd:	48 8d 70 01          	lea    0x1(%rax),%rsi
    3e01:	e8 1a f5 ff ff       	call   3320 <_ZdlPvm@plt>
    3e06:	48 8d 05 53 24 00 00 	lea    0x2453(%rip),%rax        # 6260 <_ZNSt3any17_Manager_internalIfE9_S_manageENS_3_OpEPKS_PNS_4_ArgE>
    3e0d:	4c 8d 7b 48          	lea    0x48(%rbx),%r15
    3e11:	48 89 85 30 fe ff ff 	mov    %rax,-0x1d0(%rbp)
    3e18:	48 c7 85 38 fe ff ff 	movq   $0x42200000,-0x1c8(%rbp)
    3e1f:	00 00 20 42 
    3e23:	4d 39 e7             	cmp    %r12,%r15
    3e26:	74 41                	je     3e69 <main+0x679>
    3e28:	48 8b 43 48          	mov    0x48(%rbx),%rax
    3e2c:	48 85 c0             	test   %rax,%rax
    3e2f:	74 14                	je     3e45 <main+0x655>
    3e31:	31 d2                	xor    %edx,%edx
    3e33:	4c 89 fe             	mov    %r15,%rsi
    3e36:	bf 03 00 00 00       	mov    $0x3,%edi
    3e3b:	ff d0                	call   *%rax
    3e3d:	48 c7 43 48 00 00 00 	movq   $0x0,0x48(%rbx)
    3e44:	00 
    3e45:	4c 89 bd 38 fc ff ff 	mov    %r15,-0x3c8(%rbp)
    3e4c:	4c 89 f2             	mov    %r14,%rdx
    3e4f:	4c 89 e6             	mov    %r12,%rsi
    3e52:	bf 04 00 00 00       	mov    $0x4,%edi
    3e57:	ff 95 30 fe ff ff    	call   *-0x1d0(%rbp)
    3e5d:	48 8b 85 30 fe ff ff 	mov    -0x1d0(%rbp),%rax
    3e64:	48 85 c0             	test   %rax,%rax
    3e67:	74 0c                	je     3e75 <main+0x685>
    3e69:	31 d2                	xor    %edx,%edx
    3e6b:	4c 89 e6             	mov    %r12,%rsi
    3e6e:	bf 03 00 00 00       	mov    $0x3,%edi
    3e73:	ff d0                	call   *%rax
    3e75:	48 8d 0d 54 25 00 00 	lea    0x2554(%rip),%rcx        # 63d0 <_ZNSt17_Function_handlerIFSt3anyRKNSt7__cxx1112basic_stringIcSt11char_traitsIcESaIcEEEEN8argparse7details12parse_numberIfLNSB_12chars_formatE3EEEE10_M_managerERSt9_Any_dataRKSG_St18_Manager_operation>
    3e7c:	48 8d 05 2d 3c 00 00 	lea    0x3c2d(%rip),%rax        # 7ab0 <_ZNSt17_Function_handlerIFSt3anyRKNSt7__cxx1112basic_stringIcSt11char_traitsIcESaIcEEEEN8argparse7details12parse_numberIfLNSB_12chars_formatE3EEEE9_M_invokeERKSt9_Any_dataS8_>
    3e83:	c4 e1 f9 6e c1       	vmovq  %rcx,%xmm0
    3e88:	c4 e3 f9 22 c0 01    	vpinsrq $0x1,%rax,%xmm0,%xmm0
    3e8e:	48 8d bb 88 00 00 00 	lea    0x88(%rbx),%rdi
    3e95:	4c 89 e6             	mov    %r12,%rsi
    3e98:	c5 f9 7f 85 40 fe ff 	vmovdqa %xmm0,-0x1c0(%rbp)
    3e9f:	ff 
    3ea0:	c6 85 50 fe ff ff 00 	movb   $0x0,-0x1b0(%rbp)
    3ea7:	e8 04 18 00 00       	call   56b0 <_ZZNSt8__detail9__variant17_Move_assign_baseILb0EJSt8functionIFSt3anyRKNSt7__cxx1112basic_stringIcSt11char_traitsIcESaIcEEEEES2_IFvSB_EEEEaSEOSG_ENUlOT_T0_E_clIRSD_St17integral_constantImLm0EEEEDaSJ_SK_.isra.0>
    3eac:	0f b6 95 50 fe ff ff 	movzbl -0x1b0(%rbp),%edx
    3eb3:	4c 89 e6             	mov    %r12,%rsi
    3eb6:	4c 89 f7             	mov    %r14,%rdi
    3eb9:	48 8d 05 d0 f9 00 00 	lea    0xf9d0(%rip),%rax        # 13890 <_ZNSt8__detail9__variant12__gen_vtableIvOZNS0_16_Variant_storageILb0EJSt8functionIFSt3anyRKNSt7__cxx1112basic_stringIcSt11char_traitsIcESaIcEEEEES3_IFvSC_EEEE8_M_resetEvEUlOT_E_JRSt7variantIJSE_SG_EEEE9_S_vtableE>
    3ec0:	ff 14 d0             	call   *(%rax,%rdx,8)
    3ec3:	80 bb a8 00 00 00 00 	cmpb   $0x0,0xa8(%rbx)
    3eca:	0f 85 d1 f6 ff ff    	jne    35a1 <main.cold>
    3ed0:	4c 8d bd 80 fc ff ff 	lea    -0x380(%rbp),%r15
    3ed7:	48 8d 35 79 c3 00 00 	lea    0xc379(%rip),%rsi        # 10257 <_fini+0x1036>
    3ede:	4c 89 ff             	mov    %r15,%rdi
    3ee1:	e8 0a 0a 00 00       	call   48f0 <_ZNSt7__cxx1112basic_stringIcSt11char_traitsIcESaIcEEC2IS3_EEPKcRKS3_.constprop.0>
    3ee6:	48 8d 7b 28          	lea    0x28(%rbx),%rdi
    3eea:	4c 89 fe             	mov    %r15,%rsi
    3eed:	e8 7e 07 00 00       	call   4670 <_ZNSt7__cxx1112basic_stringIcSt11char_traitsIcESaIcEEaSEOS4_.isra.0>
    3ef2:	48 8b bd 80 fc ff ff 	mov    -0x380(%rbp),%rdi
    3ef9:	48 8d 85 90 fc ff ff 	lea    -0x370(%rbp),%rax
    3f00:	48 39 c7             	cmp    %rax,%rdi
    3f03:	74 10                	je     3f15 <main+0x725>
    3f05:	48 8b 85 90 fc ff ff 	mov    -0x370(%rbp),%rax
    3f0c:	48 8d 70 01          	lea    0x1(%rax),%rsi
    3f10:	e8 0b f4 ff ff       	call   3320 <_ZdlPvm@plt>
    3f15:	48 8d 35 49 c3 00 00 	lea    0xc349(%rip),%rsi        # 10265 <_fini+0x1044>
    3f1c:	4c 89 ef             	mov    %r13,%rdi
    3f1f:	e8 7c a6 00 00       	call   e5a0 <_ZN8argparse14ArgumentParser12add_argumentIJPKcEEERNS_8ArgumentEDpT_>
    3f24:	48 89 c7             	mov    %rax,%rdi
    3f27:	4c 89 f6             	mov    %r14,%rsi
    3f2a:	c7 85 38 fc ff ff 05 	movl   $0x5,-0x3c8(%rbp)
    3f31:	00 00 00 
    3f34:	e8 67 57 00 00       	call   96a0 <_ZN8argparse8Argument13default_valueIiEERS0_OT_>
    3f39:	48 8d b8 88 00 00 00 	lea    0x88(%rax),%rdi
    3f40:	48 89 c3             	mov    %rax,%rbx
    3f43:	e8 68 18 00 00       	call   57b0 <_ZNSt7variantIJSt8functionIFSt3anyRKNSt7__cxx1112basic_stringIcSt11char_traitsIcESaIcEEEEES0_IFvS9_EEEE7emplaceILm0EJN8argparse7details12parse_numberIiLi0EEEEEENSt9enable_ifIX18is_constructible_vINSt19variant_alternativeIXT_ESE_E4typeEDpT0_EERSN_E4typeEDpOSO_.isra.0>
    3f48:	4c 8d bd a0 fc ff ff 	lea    -0x360(%rbp),%r15
    3f4f:	48 8d 35 1b c3 00 00 	lea    0xc31b(%rip),%rsi        # 10271 <_fini+0x1050>
    3f56:	4c 89 ff             	mov    %r15,%rdi
    3f59:	e8 92 09 00 00       	call   48f0 <_ZNSt7__cxx1112basic_stringIcSt11char_traitsIcESaIcEEC2IS3_EEPKcRKS3_.constprop.0>
    3f5e:	48 8d 7b 28          	lea    0x28(%rbx),%rdi
    3f62:	4c 89 fe             	mov    %r15,%rsi
    3f65:	e8 06 07 00 00       	call   4670 <_ZNSt7__cxx1112basic_stringIcSt11char_traitsIcESaIcEEaSEOS4_.isra.0>
    3f6a:	48 8b bd a0 fc ff ff 	mov    -0x360(%rbp),%rdi
    3f71:	48 8d 85 b0 fc ff ff 	lea    -0x350(%rbp),%rax
    3f78:	48 39 c7             	cmp    %rax,%rdi
    3f7b:	74 10                	je     3f8d <main+0x79d>
    3f7d:	48 8b 85 b0 fc ff ff 	mov    -0x350(%rbp),%rax
    3f84:	48 8d 70 01          	lea    0x1(%rax),%rsi
    3f88:	e8 93 f3 ff ff       	call   3320 <_ZdlPvm@plt>
    3f8d:	48 8d 35 f5 c2 00 00 	lea    0xc2f5(%rip),%rsi        # 10289 <_fini+0x1068>
    3f94:	4c 89 ef             	mov    %r13,%rdi
    3f97:	e8 04 a6 00 00       	call   e5a0 <_ZN8argparse14ArgumentParser12add_argumentIJPKcEEERNS_8ArgumentEDpT_>
    3f9c:	48 89 c7             	mov    %rax,%rdi
    3f9f:	4c 89 f6             	mov    %r14,%rsi
    3fa2:	c7 85 38 fc ff ff 05 	movl   $0x5,-0x3c8(%rbp)
    3fa9:	00 00 00 
    3fac:	e8 ef 56 00 00       	call   96a0 <_ZN8argparse8Argument13default_valueIiEERS0_OT_>
    3fb1:	48 8d b8 88 00 00 00 	lea    0x88(%rax),%rdi
    3fb8:	48 89 c3             	mov    %rax,%rbx
    3fbb:	e8 f0 17 00 00       	call   57b0 <_ZNSt7variantIJSt8functionIFSt3anyRKNSt7__cxx1112basic_stringIcSt11char_traitsIcESaIcEEEEES0_IFvS9_EEEE7emplaceILm0EJN8argparse7details12parse_numberIiLi0EEEEEENSt9enable_ifIX18is_constructible_vINSt19variant_alternativeIXT_ESE_E4typeEDpT0_EERSN_E4typeEDpOSO_.isra.0>
    3fc0:	4c 8d bd c0 fc ff ff 	lea    -0x340(%rbp),%r15
    3fc7:	48 8d 35 c4 c2 00 00 	lea    0xc2c4(%rip),%rsi        # 10292 <_fini+0x1071>
    3fce:	4c 89 ff             	mov    %r15,%rdi
    3fd1:	e8 1a 09 00 00       	call   48f0 <_ZNSt7__cxx1112basic_stringIcSt11char_traitsIcESaIcEEC2IS3_EEPKcRKS3_.constprop.0>
    3fd6:	48 8d 7b 28          	lea    0x28(%rbx),%rdi
    3fda:	4c 89 fe             	mov    %r15,%rsi
    3fdd:	e8 8e 06 00 00       	call   4670 <_ZNSt7__cxx1112basic_stringIcSt11char_traitsIcESaIcEEaSEOS4_.isra.0>
    3fe2:	48 8b bd c0 fc ff ff 	mov    -0x340(%rbp),%rdi
    3fe9:	48 8d 85 d0 fc ff ff 	lea    -0x330(%rbp),%rax
    3ff0:	48 39 c7             	cmp    %rax,%rdi
    3ff3:	74 10                	je     4005 <main+0x815>
    3ff5:	48 8b 85 d0 fc ff ff 	mov    -0x330(%rbp),%rax
    3ffc:	48 8d 70 01          	lea    0x1(%rax),%rsi
    4000:	e8 1b f3 ff ff       	call   3320 <_ZdlPvm@plt>
    4005:	48 8d 15 95 c2 00 00 	lea    0xc295(%rip),%rdx        # 102a1 <_fini+0x1080>
    400c:	48 8d 35 9b c2 00 00 	lea    0xc29b(%rip),%rsi        # 102ae <_fini+0x108d>
    4013:	4c 89 ef             	mov    %r13,%rdi
    4016:	e8 25 8b 00 00       	call   cb40 <_ZN8argparse14ArgumentParser12add_argumentIJPKcS3_EEERNS_8ArgumentEDpT_>
    401b:	48 8d 35 8f c2 00 00 	lea    0xc28f(%rip),%rsi        # 102b1 <_fini+0x1090>
    4022:	4c 89 e7             	mov    %r12,%rdi
    4025:	49 89 c7             	mov    %rax,%r15
    4028:	e8 c3 08 00 00       	call   48f0 <_ZNSt7__cxx1112basic_stringIcSt11char_traitsIcESaIcEEC2IS3_EEPKcRKS3_.constprop.0>
    402d:	4c 89 e6             	mov    %r12,%rsi
    4030:	4c 89 ff             	mov    %r15,%rdi
    4033:	e8 18 4b 00 00       	call   8b50 <_ZN8argparse8Argument13default_valueINSt7__cxx1112basic_stringIcSt11char_traitsIcESaIcEEEEERS0_OT_>
    4038:	4c 8d bd e0 fc ff ff 	lea    -0x320(%rbp),%r15
    403f:	48 8d 35 6d c2 00 00 	lea    0xc26d(%rip),%rsi        # 102b3 <_fini+0x1092>
    4046:	4c 89 ff             	mov    %r15,%rdi
    4049:	48 89 c3             	mov    %rax,%rbx
    404c:	e8 9f 08 00 00       	call   48f0 <_ZNSt7__cxx1112basic_stringIcSt11char_traitsIcESaIcEEC2IS3_EEPKcRKS3_.constprop.0>
    4051:	48 8d 7b 28          	lea    0x28(%rbx),%rdi
    4055:	4c 89 fe             	mov    %r15,%rsi
    4058:	e8 13 06 00 00       	call   4670 <_ZNSt7__cxx1112basic_stringIcSt11char_traitsIcESaIcEEaSEOS4_.isra.0>
    405d:	48 8b bd e0 fc ff ff 	mov    -0x320(%rbp),%rdi
    4064:	48 8d 85 f0 fc ff ff 	lea    -0x310(%rbp),%rax
    406b:	48 39 c7             	cmp    %rax,%rdi
    406e:	74 10                	je     4080 <main+0x890>
    4070:	48 8b 85 f0 fc ff ff 	mov    -0x310(%rbp),%rax
    4077:	48 8d 70 01          	lea    0x1(%rax),%rsi
    407b:	e8 a0 f2 ff ff       	call   3320 <_ZdlPvm@plt>
    4080:	48 8b bd 30 fe ff ff 	mov    -0x1d0(%rbp),%rdi
    4087:	48 3b bd 28 fc ff ff 	cmp    -0x3d8(%rbp),%rdi
    408e:	74 10                	je     40a0 <main+0x8b0>
    4090:	48 8b 85 40 fe ff ff 	mov    -0x1c0(%rbp),%rax
    4097:	48 8d 70 01          	lea    0x1(%rax),%rsi
    409b:	e8 80 f2 ff ff       	call   3320 <_ZdlPvm@plt>
    40a0:	48 8d 35 28 c2 00 00 	lea    0xc228(%rip),%rsi        # 102cf <_fini+0x10ae>
    40a7:	4c 89 ef             	mov    %r13,%rdi
    40aa:	e8 f1 a4 00 00       	call   e5a0 <_ZN8argparse14ArgumentParser12add_argumentIJPKcEEERNS_8ArgumentEDpT_>
    40af:	48 8d 35 1f c2 00 00 	lea    0xc21f(%rip),%rsi        # 102d5 <_fini+0x10b4>
    40b6:	4c 89 e7             	mov    %r12,%rdi
    40b9:	49 89 c7             	mov    %rax,%r15
    40bc:	e8 2f 08 00 00       	call   48f0 <_ZNSt7__cxx1112basic_stringIcSt11char_traitsIcESaIcEEC2IS3_EEPKcRKS3_.constprop.0>
    40c1:	4c 89 e6             	mov    %r12,%rsi
    40c4:	4c 89 ff             	mov    %r15,%rdi
    40c7:	e8 84 4a 00 00       	call   8b50 <_ZN8argparse8Argument13default_valueINSt7__cxx1112basic_stringIcSt11char_traitsIcESaIcEEEEERS0_OT_>
    40cc:	4c 8d bd 00 fd ff ff 	lea    -0x300(%rbp),%r15
    40d3:	48 8d 35 86 c3 00 00 	lea    0xc386(%rip),%rsi        # 10460 <_fini+0x123f>
    40da:	4c 89 ff             	mov    %r15,%rdi
    40dd:	48 89 c3             	mov    %rax,%rbx
    40e0:	e8 0b 08 00 00       	call   48f0 <_ZNSt7__cxx1112basic_stringIcSt11char_traitsIcESaIcEEC2IS3_EEPKcRKS3_.constprop.0>
    40e5:	48 8d 7b 28          	lea    0x28(%rbx),%rdi
    40e9:	4c 89 fe             	mov    %r15,%rsi
    40ec:	e8 7f 05 00 00       	call   4670 <_ZNSt7__cxx1112basic_stringIcSt11char_traitsIcESaIcEEaSEOS4_.isra.0>
    40f1:	48 8b bd 00 fd ff ff 	mov    -0x300(%rbp),%rdi
    40f8:	48 8d 85 10 fd ff ff 	lea    -0x2f0(%rbp),%rax
    40ff:	48 39 c7             	cmp    %rax,%rdi
    4102:	74 10                	je     4114 <main+0x924>
    4104:	48 8b 85 10 fd ff ff 	mov    -0x2f0(%rbp),%rax
    410b:	48 8d 70 01          	lea    0x1(%rax),%rsi
    410f:	e8 0c f2 ff ff       	call   3320 <_ZdlPvm@plt>
    4114:	48 8b bd 30 fe ff ff 	mov    -0x1d0(%rbp),%rdi
    411b:	48 3b bd 28 fc ff ff 	cmp    -0x3d8(%rbp),%rdi
    4122:	74 10                	je     4134 <main+0x944>
    4124:	48 8b 85 40 fe ff ff 	mov    -0x1c0(%rbp),%rax
    412b:	48 8d 70 01          	lea    0x1(%rax),%rsi
    412f:	e8 ec f1 ff ff       	call   3320 <_ZdlPvm@plt>
    4134:	48 8d 15 9e c1 00 00 	lea    0xc19e(%rip),%rdx        # 102d9 <_fini+0x10b8>
    413b:	48 8d 35 a1 c1 00 00 	lea    0xc1a1(%rip),%rsi        # 102e3 <_fini+0x10c2>
    4142:	4c 89 ef             	mov    %r13,%rdi
    4145:	e8 f6 89 00 00       	call   cb40 <_ZN8argparse14ArgumentParser12add_argumentIJPKcS3_EEERNS_8ArgumentEDpT_>
    414a:	48 89 c7             	mov    %rax,%rdi
    414d:	4c 89 f6             	mov    %r14,%rsi
    4150:	c6 85 38 fc ff ff 00 	movb   $0x0,-0x3c8(%rbp)
    4157:	e8 74 46 00 00       	call   87d0 <_ZN8argparse8Argument13default_valueIbEERS0_OT_>
    415c:	48 89 c7             	mov    %rax,%rdi
    415f:	4c 89 e6             	mov    %r12,%rsi
    4162:	4c 8d 3d c7 1f 00 00 	lea    0x1fc7(%rip),%r15        # 6130 <_ZNSt3any17_Manager_internalIbE9_S_manageENS_3_OpEPKS_PNS_4_ArgE>
    4169:	4c 89 bd 30 fe ff ff 	mov    %r15,-0x1d0(%rbp)
    4170:	48 c7 85 38 fe ff ff 	movq   $0x1,-0x1c8(%rbp)
    4177:	01 00 00 00 
    417b:	e8 c0 3a 00 00       	call   7c40 <_ZN8argparse8Argument14implicit_valueESt3any>
    4180:	48 8b bd 20 fc ff ff 	mov    -0x3e0(%rbp),%rdi
    4187:	48 8d 35 02 c3 00 00 	lea    0xc302(%rip),%rsi        # 10490 <_fini+0x126f>
    418e:	48 89 c3             	mov    %rax,%rbx
    4191:	e8 5a 07 00 00       	call   48f0 <_ZNSt7__cxx1112basic_stringIcSt11char_traitsIcESaIcEEC2IS3_EEPKcRKS3_.constprop.0>
    4196:	48 8b b5 20 fc ff ff 	mov    -0x3e0(%rbp),%rsi
    419d:	48 8d 7b 28          	lea    0x28(%rbx),%rdi
    41a1:	e8 ca 04 00 00       	call   4670 <_ZNSt7__cxx1112basic_stringIcSt11char_traitsIcESaIcEEaSEOS4_.isra.0>
    41a6:	48 8b bd 20 fd ff ff 	mov    -0x2e0(%rbp),%rdi
    41ad:	48 3b bd 18 fc ff ff 	cmp    -0x3e8(%rbp),%rdi
    41b4:	74 10                	je     41c6 <main+0x9d6>
    41b6:	48 8b 85 30 fd ff ff 	mov    -0x2d0(%rbp),%rax
    41bd:	48 8d 70 01          	lea    0x1(%rax),%rsi
    41c1:	e8 5a f1 ff ff       	call   3320 <_ZdlPvm@plt>
    41c6:	48 8b 85 30 fe ff ff 	mov    -0x1d0(%rbp),%rax
    41cd:	48 85 c0             	test   %rax,%rax
    41d0:	74 0c                	je     41de <main+0x9ee>
    41d2:	31 d2                	xor    %edx,%edx
    41d4:	4c 89 e6             	mov    %r12,%rsi
    41d7:	bf 03 00 00 00       	mov    $0x3,%edi
    41dc:	ff d0                	call   *%rax
    41de:	48 8d 35 01 c1 00 00 	lea    0xc101(%rip),%rsi        # 102e6 <_fini+0x10c5>
    41e5:	4c 89 ef             	mov    %r13,%rdi
    41e8:	e8 b3 a3 00 00       	call   e5a0 <_ZN8argparse14ArgumentParser12add_argumentIJPKcEEERNS_8ArgumentEDpT_>
    41ed:	48 89 c7             	mov    %rax,%rdi
    41f0:	4c 89 f6             	mov    %r14,%rsi
    41f3:	c6 85 38 fc ff ff 00 	movb   $0x0,-0x3c8(%rbp)
    41fa:	e8 d1 45 00 00       	call   87d0 <_ZN8argparse8Argument13default_valueIbEERS0_OT_>
    41ff:	48 8b b5 20 fc ff ff 	mov    -0x3e0(%rbp),%rsi
    4206:	48 89 c7             	mov    %rax,%rdi
    4209:	4c 89 bd 20 fd ff ff 	mov    %r15,-0x2e0(%rbp)
    4210:	48 c7 85 28 fd ff ff 	movq   $0x1,-0x2d8(%rbp)
    4217:	01 00 00 00 
    421b:	e8 20 3a 00 00       	call   7c40 <_ZN8argparse8Argument14implicit_valueESt3any>
    4220:	48 8d 35 91 c2 00 00 	lea    0xc291(%rip),%rsi        # 104b8 <_fini+0x1297>
    4227:	4c 89 e7             	mov    %r12,%rdi
    422a:	48 89 c3             	mov    %rax,%rbx
    422d:	e8 be 06 00 00       	call   48f0 <_ZNSt7__cxx1112basic_stringIcSt11char_traitsIcESaIcEEC2IS3_EEPKcRKS3_.constprop.0>
    4232:	48 8d 7b 28          	lea    0x28(%rbx),%rdi
    4236:	4c 89 e6             	mov    %r12,%rsi
    4239:	e8 32 04 00 00       	call   4670 <_ZNSt7__cxx1112basic_stringIcSt11char_traitsIcESaIcEEaSEOS4_.isra.0>
    423e:	48 8b bd 30 fe ff ff 	mov    -0x1d0(%rbp),%rdi
    4245:	48 3b bd 28 fc ff ff 	cmp    -0x3d8(%rbp),%rdi
    424c:	74 10                	je     425e <main+0xa6e>
    424e:	48 8b 85 40 fe ff ff 	mov    -0x1c0(%rbp),%rax
    4255:	48 8d 70 01          	lea    0x1(%rax),%rsi
    4259:	e8 c2 f0 ff ff       	call   3320 <_ZdlPvm@plt>
    425e:	48 8b 85 20 fd ff ff 	mov    -0x2e0(%rbp),%rax
    4265:	48 85 c0             	test   %rax,%rax
    4268:	74 10                	je     427a <main+0xa8a>
    426a:	48 8b b5 20 fc ff ff 	mov    -0x3e0(%rbp),%rsi
    4271:	31 d2                	xor    %edx,%edx
    4273:	bf 03 00 00 00       	mov    $0x3,%edi
    4278:	ff d0                	call   *%rax
    427a:	ba 04 00 00 00       	mov    $0x4,%edx
    427f:	48 8d 35 7a bf 00 00 	lea    0xbf7a(%rip),%rsi        # 10200 <_fini+0xfdf>
    4286:	48 8d 3d b3 fd 00 00 	lea    0xfdb3(%rip),%rdi        # 14040 <_ZSt4cout@@Base>
    428d:	e8 0e f1 ff ff       	call   33a0 <_ZSt16__ostream_insertIcSt11char_traitsIcEERSt13basic_ostreamIT_T0_ES6_PKS3_l@plt>
    4292:	48 8d 3d a7 fd 00 00 	lea    0xfda7(%rip),%rdi        # 14040 <_ZSt4cout@@Base>
    4299:	e8 62 03 00 00       	call   4600 <_ZSt4endlIcSt11char_traitsIcEERSt13basic_ostreamIT_T0_ES6_.isra.0>
    429e:	48 8b 95 08 fc ff ff 	mov    -0x3f8(%rbp),%rdx
    42a5:	8b b5 14 fc ff ff    	mov    -0x3ec(%rbp),%esi
    42ab:	4c 89 ef             	mov    %r13,%rdi
    42ae:	e8 ad 7e 00 00       	call   c160 <_ZN8argparse14ArgumentParser10parse_argsEiPKPKc>
    42b3:	ba 04 00 00 00       	mov    $0x4,%edx
    42b8:	48 8d 35 41 bf 00 00 	lea    0xbf41(%rip),%rsi        # 10200 <_fini+0xfdf>
    42bf:	48 8d 3d 7a fd 00 00 	lea    0xfd7a(%rip),%rdi        # 14040 <_ZSt4cout@@Base>
    42c6:	e8 d5 f0 ff ff       	call   33a0 <_ZSt16__ostream_insertIcSt11char_traitsIcEERSt13basic_ostreamIT_T0_ES6_PKS3_l@plt>
    42cb:	48 8d 3d 6e fd 00 00 	lea    0xfd6e(%rip),%rdi        # 14040 <_ZSt4cout@@Base>
    42d2:	e8 29 03 00 00       	call   4600 <_ZSt4endlIcSt11char_traitsIcEERSt13basic_ostreamIT_T0_ES6_.isra.0>
    42d7:	4c 89 ef             	mov    %r13,%rdi
    42da:	e8 b1 4e 00 00       	call   9190 <_ZN8argparse14ArgumentParserD1Ev>
    42df:	48 8b 45 c8          	mov    -0x38(%rbp),%rax
    42e3:	64 48 2b 04 25 28 00 	sub    %fs:0x28,%rax
    42ea:	00 00 
    42ec:	0f 85 c0 00 00 00    	jne    43b2 <main+0xbc2>
    42f2:	48 81 c4 e0 03 00 00 	add    $0x3e0,%rsp
    42f9:	5b                   	pop    %rbx
    42fa:	41 5a                	pop    %r10
    42fc:	41 5c                	pop    %r12
    42fe:	41 5d                	pop    %r13
    4300:	41 5e                	pop    %r14
    4302:	41 5f                	pop    %r15
    4304:	31 c0                	xor    %eax,%eax
    4306:	5d                   	pop    %rbp
    4307:	49 8d 62 f8          	lea    -0x8(%r10),%rsp
    430b:	c3                   	ret    
    430c:	48 29 c8             	sub    %rcx,%rax
    430f:	48 8b bd 20 fc ff ff 	mov    -0x3e0(%rbp),%rdi
    4316:	49 89 c0             	mov    %rax,%r8
    4319:	31 d2                	xor    %edx,%edx
    431b:	31 f6                	xor    %esi,%esi
    431d:	e8 8e ee ff ff       	call   31b0 <_ZNSt7__cxx1112basic_stringIcSt11char_traitsIcESaIcEE10_M_replaceEmmPKcm@plt>
    4322:	e9 5b f9 ff ff       	jmp    3c82 <main+0x492>
    4327:	48 8b 95 28 fd ff ff 	mov    -0x2d8(%rbp),%rdx
    432e:	48 85 d2             	test   %rdx,%rdx
    4331:	74 1d                	je     4350 <main+0xb60>
    4333:	48 83 fa 01          	cmp    $0x1,%rdx
    4337:	74 63                	je     439c <main+0xbac>
    4339:	48 8b b5 18 fc ff ff 	mov    -0x3e8(%rbp),%rsi
    4340:	e8 fb ed ff ff       	call   3140 <memcpy@plt>
    4345:	48 8b 7b 58          	mov    0x58(%rbx),%rdi
    4349:	48 8b 95 28 fd ff ff 	mov    -0x2d8(%rbp),%rdx
    4350:	48 89 53 60          	mov    %rdx,0x60(%rbx)
    4354:	c6 04 17 00          	movb   $0x0,(%rdi,%rdx,1)
    4358:	e9 74 fa ff ff       	jmp    3dd1 <main+0x5e1>
    435d:	c4 e1 f9 6e d8       	vmovq  %rax,%xmm3
    4362:	48 89 53 58          	mov    %rdx,0x58(%rbx)
    4366:	c4 e3 e1 22 c1 01    	vpinsrq $0x1,%rcx,%xmm3,%xmm0
    436c:	c5 fa 7f 43 60       	vmovdqu %xmm0,0x60(%rbx)
    4371:	48 8b 85 18 fc ff ff 	mov    -0x3e8(%rbp),%rax
    4378:	48 89 85 20 fd ff ff 	mov    %rax,-0x2e0(%rbp)
    437f:	e9 4d fa ff ff       	jmp    3dd1 <main+0x5e1>
    4384:	48 8b bd 20 fc ff ff 	mov    -0x3e0(%rbp),%rdi
    438b:	48 8d b5 90 fe ff ff 	lea    -0x170(%rbp),%rsi
    4392:	e8 09 ee ff ff       	call   31a0 <_ZNSt7__cxx1112basic_stringIcSt11char_traitsIcESaIcEE9_M_assignERKS4_@plt>
    4397:	e9 e6 f8 ff ff       	jmp    3c82 <main+0x492>
    439c:	0f b6 85 30 fd ff ff 	movzbl -0x2d0(%rbp),%eax
    43a3:	88 07                	mov    %al,(%rdi)
    43a5:	48 8b 7b 58          	mov    0x58(%rbx),%rdi
    43a9:	48 8b 95 28 fd ff ff 	mov    -0x2d8(%rbp),%rdx
    43b0:	eb 9e                	jmp    4350 <main+0xb60>
    43b2:	e8 99 ed ff ff       	call   3150 <__stack_chk_fail@plt>
    43b7:	48 89 c3             	mov    %rax,%rbx
    43ba:	e9 e9 f1 ff ff       	jmp    35a8 <main.cold+0x7>
    43bf:	49 89 c4             	mov    %rax,%r12
    43c2:	e9 2c f2 ff ff       	jmp    35f3 <main.cold+0x52>
    43c7:	49 89 c4             	mov    %rax,%r12
    43ca:	e9 24 f2 ff ff       	jmp    35f3 <main.cold+0x52>
    43cf:	48 89 c3             	mov    %rax,%rbx
    43d2:	e9 41 f2 ff ff       	jmp    3618 <main.cold+0x77>
    43d7:	49 89 c4             	mov    %rax,%r12
    43da:	e9 59 f2 ff ff       	jmp    3638 <main.cold+0x97>
    43df:	48 89 c7             	mov    %rax,%rdi
    43e2:	48 89 d0             	mov    %rdx,%rax
    43e5:	e9 7f f2 ff ff       	jmp    3669 <main.cold+0xc8>
    43ea:	48 89 c3             	mov    %rax,%rbx
    43ed:	c5 f8 77             	vzeroupper 
    43f0:	e9 d6 f1 ff ff       	jmp    35cb <main.cold+0x2a>
    43f5:	48 89 c3             	mov    %rax,%rbx
    43f8:	c5 f8 77             	vzeroupper 
    43fb:	e9 e2 f2 ff ff       	jmp    36e2 <main.cold+0x141>
    4400:	e9 e1 f1 ff ff       	jmp    35e6 <main.cold+0x45>
    4405:	49 89 c4             	mov    %rax,%r12
    4408:	e9 0e f3 ff ff       	jmp    371b <main.cold+0x17a>
    440d:	48 89 c3             	mov    %rax,%rbx
    4410:	e9 5c f3 ff ff       	jmp    3771 <main.cold+0x1d0>
    4415:	49 89 c4             	mov    %rax,%r12
    4418:	c5 f8 77             	vzeroupper 
    441b:	e9 21 f3 ff ff       	jmp    3741 <main.cold+0x1a0>
    4420:	48 89 c3             	mov    %rax,%rbx
    4423:	e9 8b f2 ff ff       	jmp    36b3 <main.cold+0x112>
    4428:	0f 1f 84 00 00 00 00 	nopl   0x0(%rax,%rax,1)
    442f:	00 

0000000000004430 <_GLOBAL__sub_I_main>:
    4430:	48 83 ec 08          	sub    $0x8,%rsp
    4434:	48 8d 3d b5 fe 00 00 	lea    0xfeb5(%rip),%rdi        # 142f0 <_ZStL8__ioinit>
    443b:	e8 10 ee ff ff       	call   3250 <_ZNSt8ios_base4InitC1Ev@plt>
    4440:	48 8b 3d 79 fb 00 00 	mov    0xfb79(%rip),%rdi        # 13fc0 <_ZNSt8ios_base4InitD1Ev@Base>
    4447:	48 8d 15 b2 fb 00 00 	lea    0xfbb2(%rip),%rdx        # 14000 <__dso_handle>
    444e:	48 8d 35 9b fe 00 00 	lea    0xfe9b(%rip),%rsi        # 142f0 <_ZStL8__ioinit>
    4455:	48 83 c4 08          	add    $0x8,%rsp
    4459:	e9 82 ee ff ff       	jmp    32e0 <__cxa_atexit@plt>

000000000000445e <_start>:
    445e:	48 31 ed             	xor    %rbp,%rbp
    4461:	48 89 e7             	mov    %rsp,%rdi
    4464:	48 8d 35 45 f7 00 00 	lea    0xf745(%rip),%rsi        # 13bb0 <_DYNAMIC>
    446b:	48 83 e4 f0          	and    $0xfffffffffffffff0,%rsp
    446f:	e8 00 00 00 00       	call   4474 <_start_c>

0000000000004474 <_start_c>:
    4474:	48 8b 37             	mov    (%rdi),%rsi
    4477:	48 8d 57 08          	lea    0x8(%rdi),%rdx
    447b:	45 31 c9             	xor    %r9d,%r9d
    447e:	4c 8d 05 9c ad 00 00 	lea    0xad9c(%rip),%r8        # f221 <_fini>
    4485:	48 8d 0d 74 eb ff ff 	lea    -0x148c(%rip),%rcx        # 3000 <_init>
    448c:	48 8d 3d 5d f3 ff ff 	lea    -0xca3(%rip),%rdi        # 37f0 <main>
    4493:	e9 a8 ed ff ff       	jmp    3240 <__libc_start_main@plt>
    4498:	0f 1f 84 00 00 00 00 	nopl   0x0(%rax,%rax,1)
    449f:	00 

00000000000044a0 <deregister_tm_clones>:
    44a0:	48 8d 3d 71 fb 00 00 	lea    0xfb71(%rip),%rdi        # 14018 <__TMC_END__>
    44a7:	48 8d 05 6a fb 00 00 	lea    0xfb6a(%rip),%rax        # 14018 <__TMC_END__>
    44ae:	48 39 f8             	cmp    %rdi,%rax
    44b1:	74 15                	je     44c8 <deregister_tm_clones+0x28>
    44b3:	48 8b 05 ee fa 00 00 	mov    0xfaee(%rip),%rax        # 13fa8 <_ITM_deregisterTMCloneTable@Base>
    44ba:	48 85 c0             	test   %rax,%rax
    44bd:	74 09                	je     44c8 <deregister_tm_clones+0x28>
    44bf:	ff e0                	jmp    *%rax
    44c1:	0f 1f 80 00 00 00 00 	nopl   0x0(%rax)
    44c8:	c3                   	ret    
    44c9:	0f 1f 80 00 00 00 00 	nopl   0x0(%rax)

00000000000044d0 <register_tm_clones>:
    44d0:	48 8d 3d 41 fb 00 00 	lea    0xfb41(%rip),%rdi        # 14018 <__TMC_END__>
    44d7:	48 8d 35 3a fb 00 00 	lea    0xfb3a(%rip),%rsi        # 14018 <__TMC_END__>
    44de:	48 29 fe             	sub    %rdi,%rsi
    44e1:	48 89 f0             	mov    %rsi,%rax
    44e4:	48 c1 ee 3f          	shr    $0x3f,%rsi
    44e8:	48 c1 f8 03          	sar    $0x3,%rax
    44ec:	48 01 c6             	add    %rax,%rsi
    44ef:	48 d1 fe             	sar    %rsi
    44f2:	74 14                	je     4508 <register_tm_clones+0x38>
    44f4:	48 8b 05 e5 fa 00 00 	mov    0xfae5(%rip),%rax        # 13fe0 <_ITM_registerTMCloneTable@Base>
    44fb:	48 85 c0             	test   %rax,%rax
    44fe:	74 08                	je     4508 <register_tm_clones+0x38>
    4500:	ff e0                	jmp    *%rax
    4502:	66 0f 1f 44 00 00    	nopw   0x0(%rax,%rax,1)
    4508:	c3                   	ret    
    4509:	0f 1f 80 00 00 00 00 	nopl   0x0(%rax)

0000000000004510 <__do_global_dtors_aux>:
    4510:	80 3d 89 fd 00 00 00 	cmpb   $0x0,0xfd89(%rip)        # 142a0 <completed.2>
    4517:	0f 85 93 00 00 00    	jne    45b0 <__do_global_dtors_aux+0xa0>
    451d:	55                   	push   %rbp
    451e:	48 83 3d 7a fa 00 00 	cmpq   $0x0,0xfa7a(%rip)        # 13fa0 <__cxa_finalize@Base>
    4525:	00 
    4526:	48 89 e5             	mov    %rsp,%rbp
    4529:	41 54                	push   %r12
    452b:	53                   	push   %rbx
    452c:	74 0c                	je     453a <__do_global_dtors_aux+0x2a>
    452e:	48 8b 3d cb fa 00 00 	mov    0xfacb(%rip),%rdi        # 14000 <__dso_handle>
    4535:	e8 96 ee ff ff       	call   33d0 <__cxa_finalize@plt>
    453a:	48 8d 05 0f f3 00 00 	lea    0xf30f(%rip),%rax        # 13850 <__DTOR_LIST__>
    4541:	48 8d 1d 10 f3 00 00 	lea    0xf310(%rip),%rbx        # 13858 <__DTOR_END__>
    4548:	48 29 c3             	sub    %rax,%rbx
    454b:	49 89 c4             	mov    %rax,%r12
    454e:	48 8b 05 53 fd 00 00 	mov    0xfd53(%rip),%rax        # 142a8 <dtor_idx.1>
    4555:	48 c1 fb 03          	sar    $0x3,%rbx
    4559:	48 83 eb 01          	sub    $0x1,%rbx
    455d:	48 39 d8             	cmp    %rbx,%rax
    4560:	73 21                	jae    4583 <__do_global_dtors_aux+0x73>
    4562:	66 0f 1f 44 00 00    	nopw   0x0(%rax,%rax,1)
    4568:	48 83 c0 01          	add    $0x1,%rax
    456c:	48 89 05 35 fd 00 00 	mov    %rax,0xfd35(%rip)        # 142a8 <dtor_idx.1>
    4573:	41 ff 14 c4          	call   *(%r12,%rax,8)
    4577:	48 8b 05 2a fd 00 00 	mov    0xfd2a(%rip),%rax        # 142a8 <dtor_idx.1>
    457e:	48 39 d8             	cmp    %rbx,%rax
    4581:	72 e5                	jb     4568 <__do_global_dtors_aux+0x58>
    4583:	e8 18 ff ff ff       	call   44a0 <deregister_tm_clones>
    4588:	48 83 3d 40 fa 00 00 	cmpq   $0x0,0xfa40(%rip)        # 13fd0 <__deregister_frame_info@GCC_3.0>
    458f:	00 
    4590:	74 0c                	je     459e <__do_global_dtors_aux+0x8e>
    4592:	48 8d 3d 87 c5 00 00 	lea    0xc587(%rip),%rdi        # 10b20 <__EH_FRAME_BEGIN__>
    4599:	e8 42 ee ff ff       	call   33e0 <__deregister_frame_info@plt>
    459e:	5b                   	pop    %rbx
    459f:	41 5c                	pop    %r12
    45a1:	c6 05 f8 fc 00 00 01 	movb   $0x1,0xfcf8(%rip)        # 142a0 <completed.2>
    45a8:	5d                   	pop    %rbp
    45a9:	c3                   	ret    
    45aa:	66 0f 1f 44 00 00    	nopw   0x0(%rax,%rax,1)
    45b0:	c3                   	ret    
    45b1:	66 66 2e 0f 1f 84 00 	data16 cs nopw 0x0(%rax,%rax,1)
    45b8:	00 00 00 00 
    45bc:	0f 1f 40 00          	nopl   0x0(%rax)

00000000000045c0 <frame_dummy>:
    45c0:	48 83 3d f0 f9 00 00 	cmpq   $0x0,0xf9f0(%rip)        # 13fb8 <__register_frame_info@GCC_3.0>
    45c7:	00 
    45c8:	74 26                	je     45f0 <frame_dummy+0x30>
    45ca:	55                   	push   %rbp
    45cb:	48 8d 35 ee fc 00 00 	lea    0xfcee(%rip),%rsi        # 142c0 <object.0>
    45d2:	48 8d 3d 47 c5 00 00 	lea    0xc547(%rip),%rdi        # 10b20 <__EH_FRAME_BEGIN__>
    45d9:	48 89 e5             	mov    %rsp,%rbp
    45dc:	e8 f7 ed ff ff       	call   33d8 <__register_frame_info@plt>
    45e1:	5d                   	pop    %rbp
    45e2:	e9 e9 fe ff ff       	jmp    44d0 <register_tm_clones>
    45e7:	66 0f 1f 84 00 00 00 	nopw   0x0(%rax,%rax,1)
    45ee:	00 00 
    45f0:	e9 db fe ff ff       	jmp    44d0 <register_tm_clones>
    45f5:	66 2e 0f 1f 84 00 00 	cs nopw 0x0(%rax,%rax,1)
    45fc:	00 00 00 
    45ff:	90                   	nop

0000000000004600 <_ZSt4endlIcSt11char_traitsIcEERSt13basic_ostreamIT_T0_ES6_.isra.0>:
    4600:	41 54                	push   %r12
    4602:	55                   	push   %rbp
    4603:	48 83 ec 08          	sub    $0x8,%rsp
    4607:	48 8b 07             	mov    (%rdi),%rax
    460a:	48 8b 40 e8          	mov    -0x18(%rax),%rax
    460e:	4c 8b a4 07 f0 00 00 	mov    0xf0(%rdi,%rax,1),%r12
    4615:	00 
    4616:	4d 85 e4             	test   %r12,%r12
    4619:	74 44                	je     465f <_ZSt4endlIcSt11char_traitsIcEERSt13basic_ostreamIT_T0_ES6_.isra.0+0x5f>
    461b:	41 80 7c 24 38 00    	cmpb   $0x0,0x38(%r12)
    4621:	48 89 fd             	mov    %rdi,%rbp
    4624:	74 1d                	je     4643 <_ZSt4endlIcSt11char_traitsIcEERSt13basic_ostreamIT_T0_ES6_.isra.0+0x43>
    4626:	41 0f be 74 24 43    	movsbl 0x43(%r12),%esi
    462c:	48 89 ef             	mov    %rbp,%rdi
    462f:	e8 5c eb ff ff       	call   3190 <_ZNSo3putEc@plt>
    4634:	48 83 c4 08          	add    $0x8,%rsp
    4638:	5d                   	pop    %rbp
    4639:	48 89 c7             	mov    %rax,%rdi
    463c:	41 5c                	pop    %r12
    463e:	e9 1d eb ff ff       	jmp    3160 <_ZNSo5flushEv@plt>
    4643:	4c 89 e7             	mov    %r12,%rdi
    4646:	e8 25 ea ff ff       	call   3070 <_ZNKSt5ctypeIcE13_M_widen_initEv@plt>
    464b:	49 8b 04 24          	mov    (%r12),%rax
    464f:	be 0a 00 00 00       	mov    $0xa,%esi
    4654:	4c 89 e7             	mov    %r12,%rdi
    4657:	ff 50 30             	call   *0x30(%rax)
    465a:	0f be f0             	movsbl %al,%esi
    465d:	eb cd                	jmp    462c <_ZSt4endlIcSt11char_traitsIcEERSt13basic_ostreamIT_T0_ES6_.isra.0+0x2c>
    465f:	e8 6c eb ff ff       	call   31d0 <_ZSt16__throw_bad_castv@plt>
    4664:	66 66 2e 0f 1f 84 00 	data16 cs nopw 0x0(%rax,%rax,1)
    466b:	00 00 00 00 
    466f:	90                   	nop

0000000000004670 <_ZNSt7__cxx1112basic_stringIcSt11char_traitsIcESaIcEEaSEOS4_.isra.0>:
    4670:	55                   	push   %rbp
    4671:	48 89 fd             	mov    %rdi,%rbp
    4674:	53                   	push   %rbx
    4675:	48 89 f3             	mov    %rsi,%rbx
    4678:	48 8d 43 10          	lea    0x10(%rbx),%rax
    467c:	48 83 ec 08          	sub    $0x8,%rsp
    4680:	48 8b 36             	mov    (%rsi),%rsi
    4683:	48 8b 3f             	mov    (%rdi),%rdi
    4686:	48 8b 53 08          	mov    0x8(%rbx),%rdx
    468a:	48 39 c6             	cmp    %rax,%rsi
    468d:	74 53                	je     46e2 <_ZNSt7__cxx1112basic_stringIcSt11char_traitsIcESaIcEEaSEOS4_.isra.0+0x72>
    468f:	48 8d 4d 10          	lea    0x10(%rbp),%rcx
    4693:	48 39 cf             	cmp    %rcx,%rdi
    4696:	74 35                	je     46cd <_ZNSt7__cxx1112basic_stringIcSt11char_traitsIcESaIcEEaSEOS4_.isra.0+0x5d>
    4698:	48 89 75 00          	mov    %rsi,0x0(%rbp)
    469c:	48 89 55 08          	mov    %rdx,0x8(%rbp)
    46a0:	48 8b 4d 10          	mov    0x10(%rbp),%rcx
    46a4:	48 8b 53 10          	mov    0x10(%rbx),%rdx
    46a8:	48 89 55 10          	mov    %rdx,0x10(%rbp)
    46ac:	48 85 ff             	test   %rdi,%rdi
    46af:	74 2c                	je     46dd <_ZNSt7__cxx1112basic_stringIcSt11char_traitsIcESaIcEEaSEOS4_.isra.0+0x6d>
    46b1:	48 89 3b             	mov    %rdi,(%rbx)
    46b4:	48 89 4b 10          	mov    %rcx,0x10(%rbx)
    46b8:	48 8b 03             	mov    (%rbx),%rax
    46bb:	48 c7 43 08 00 00 00 	movq   $0x0,0x8(%rbx)
    46c2:	00 
    46c3:	c6 00 00             	movb   $0x0,(%rax)
    46c6:	48 83 c4 08          	add    $0x8,%rsp
    46ca:	5b                   	pop    %rbx
    46cb:	5d                   	pop    %rbp
    46cc:	c3                   	ret    
    46cd:	48 89 75 00          	mov    %rsi,0x0(%rbp)
    46d1:	48 89 55 08          	mov    %rdx,0x8(%rbp)
    46d5:	48 8b 53 10          	mov    0x10(%rbx),%rdx
    46d9:	48 89 55 10          	mov    %rdx,0x10(%rbp)
    46dd:	48 89 03             	mov    %rax,(%rbx)
    46e0:	eb d6                	jmp    46b8 <_ZNSt7__cxx1112basic_stringIcSt11char_traitsIcESaIcEEaSEOS4_.isra.0+0x48>
    46e2:	48 85 d2             	test   %rdx,%rdx
    46e5:	74 13                	je     46fa <_ZNSt7__cxx1112basic_stringIcSt11char_traitsIcESaIcEEaSEOS4_.isra.0+0x8a>
    46e7:	48 83 fa 01          	cmp    $0x1,%rdx
    46eb:	74 17                	je     4704 <_ZNSt7__cxx1112basic_stringIcSt11char_traitsIcESaIcEEaSEOS4_.isra.0+0x94>
    46ed:	e8 4e ea ff ff       	call   3140 <memcpy@plt>
    46f2:	48 8b 7d 00          	mov    0x0(%rbp),%rdi
    46f6:	48 8b 53 08          	mov    0x8(%rbx),%rdx
    46fa:	48 89 55 08          	mov    %rdx,0x8(%rbp)
    46fe:	c6 04 17 00          	movb   $0x0,(%rdi,%rdx,1)
    4702:	eb b4                	jmp    46b8 <_ZNSt7__cxx1112basic_stringIcSt11char_traitsIcESaIcEEaSEOS4_.isra.0+0x48>
    4704:	0f b6 43 10          	movzbl 0x10(%rbx),%eax
    4708:	88 07                	mov    %al,(%rdi)
    470a:	48 8b 7d 00          	mov    0x0(%rbp),%rdi
    470e:	48 8b 53 08          	mov    0x8(%rbx),%rdx
    4712:	eb e6                	jmp    46fa <_ZNSt7__cxx1112basic_stringIcSt11char_traitsIcESaIcEEaSEOS4_.isra.0+0x8a>
    4714:	66 66 2e 0f 1f 84 00 	data16 cs nopw 0x0(%rax,%rax,1)
    471b:	00 00 00 00 
    471f:	90                   	nop

0000000000004720 <_ZNSt8_Rb_treeISt17basic_string_viewIcSt11char_traitsIcEESt4pairIKS3_St14_List_iteratorIN8argparse8ArgumentEEESt10_Select1stISA_ESt4lessIvESaISA_EE8_M_eraseEPSt13_Rb_tree_nodeISA_E.isra.0>:
    4720:	41 57                	push   %r15
    4722:	41 56                	push   %r14
    4724:	41 55                	push   %r13
    4726:	41 54                	push   %r12
    4728:	55                   	push   %rbp
    4729:	53                   	push   %rbx
    472a:	48 83 ec 28          	sub    $0x28,%rsp
    472e:	48 89 7c 24 10       	mov    %rdi,0x10(%rsp)
    4733:	48 85 ff             	test   %rdi,%rdi
    4736:	0f 84 9b 01 00 00    	je     48d7 <_ZNSt8_Rb_treeISt17basic_string_viewIcSt11char_traitsIcEESt4pairIKS3_St14_List_iteratorIN8argparse8ArgumentEEESt10_Select1stISA_ESt4lessIvESaISA_EE8_M_eraseEPSt13_Rb_tree_nodeISA_E.isra.0+0x1b7>
    473c:	48 8b 44 24 10       	mov    0x10(%rsp),%rax
    4741:	4c 8b 70 18          	mov    0x18(%rax),%r14
    4745:	4d 85 f6             	test   %r14,%r14
    4748:	0f 84 67 01 00 00    	je     48b5 <_ZNSt8_Rb_treeISt17basic_string_viewIcSt11char_traitsIcEESt4pairIKS3_St14_List_iteratorIN8argparse8ArgumentEEESt10_Select1stISA_ESt4lessIvESaISA_EE8_M_eraseEPSt13_Rb_tree_nodeISA_E.isra.0+0x195>
    474e:	4d 8b 7e 18          	mov    0x18(%r14),%r15
    4752:	4d 85 ff             	test   %r15,%r15
    4755:	0f 84 3c 01 00 00    	je     4897 <_ZNSt8_Rb_treeISt17basic_string_viewIcSt11char_traitsIcEESt4pairIKS3_St14_List_iteratorIN8argparse8ArgumentEEESt10_Select1stISA_ESt4lessIvESaISA_EE8_M_eraseEPSt13_Rb_tree_nodeISA_E.isra.0+0x177>
    475b:	49 8b 47 18          	mov    0x18(%r15),%rax
    475f:	48 89 44 24 08       	mov    %rax,0x8(%rsp)
    4764:	48 85 c0             	test   %rax,%rax
    4767:	0f 84 0c 01 00 00    	je     4879 <_ZNSt8_Rb_treeISt17basic_string_viewIcSt11char_traitsIcEESt4pairIKS3_St14_List_iteratorIN8argparse8ArgumentEEESt10_Select1stISA_ESt4lessIvESaISA_EE8_M_eraseEPSt13_Rb_tree_nodeISA_E.isra.0+0x159>
    476d:	48 8b 44 24 08       	mov    0x8(%rsp),%rax
    4772:	48 8b 68 18          	mov    0x18(%rax),%rbp
    4776:	48 85 ed             	test   %rbp,%rbp
    4779:	0f 84 af 00 00 00    	je     482e <_ZNSt8_Rb_treeISt17basic_string_viewIcSt11char_traitsIcEESt4pairIKS3_St14_List_iteratorIN8argparse8ArgumentEEESt10_Select1stISA_ESt4lessIvESaISA_EE8_M_eraseEPSt13_Rb_tree_nodeISA_E.isra.0+0x10e>
    477f:	4c 8b 6d 18          	mov    0x18(%rbp),%r13
    4783:	4d 85 ed             	test   %r13,%r13
    4786:	74 64                	je     47ec <_ZNSt8_Rb_treeISt17basic_string_viewIcSt11char_traitsIcEESt4pairIKS3_St14_List_iteratorIN8argparse8ArgumentEEESt10_Select1stISA_ESt4lessIvESaISA_EE8_M_eraseEPSt13_Rb_tree_nodeISA_E.isra.0+0xcc>
    4788:	4d 8b 65 18          	mov    0x18(%r13),%r12
    478c:	4d 85 e4             	test   %r12,%r12
    478f:	74 7f                	je     4810 <_ZNSt8_Rb_treeISt17basic_string_viewIcSt11char_traitsIcEESt4pairIKS3_St14_List_iteratorIN8argparse8ArgumentEEESt10_Select1stISA_ESt4lessIvESaISA_EE8_M_eraseEPSt13_Rb_tree_nodeISA_E.isra.0+0xf0>
    4791:	4d 8b 4c 24 18       	mov    0x18(%r12),%r9
    4796:	4d 85 c9             	test   %r9,%r9
    4799:	0f 84 b1 00 00 00    	je     4850 <_ZNSt8_Rb_treeISt17basic_string_viewIcSt11char_traitsIcEESt4pairIKS3_St14_List_iteratorIN8argparse8ArgumentEEESt10_Select1stISA_ESt4lessIvESaISA_EE8_M_eraseEPSt13_Rb_tree_nodeISA_E.isra.0+0x130>
    479f:	49 8b 59 18          	mov    0x18(%r9),%rbx
    47a3:	48 85 db             	test   %rbx,%rbx
    47a6:	74 29                	je     47d1 <_ZNSt8_Rb_treeISt17basic_string_viewIcSt11char_traitsIcEESt4pairIKS3_St14_List_iteratorIN8argparse8ArgumentEEESt10_Select1stISA_ESt4lessIvESaISA_EE8_M_eraseEPSt13_Rb_tree_nodeISA_E.isra.0+0xb1>
    47a8:	48 8b 7b 18          	mov    0x18(%rbx),%rdi
    47ac:	4c 89 4c 24 18       	mov    %r9,0x18(%rsp)
    47b1:	e8 6a ff ff ff       	call   4720 <_ZNSt8_Rb_treeISt17basic_string_viewIcSt11char_traitsIcEESt4pairIKS3_St14_List_iteratorIN8argparse8ArgumentEEESt10_Select1stISA_ESt4lessIvESaISA_EE8_M_eraseEPSt13_Rb_tree_nodeISA_E.isra.0>
    47b6:	48 89 df             	mov    %rbx,%rdi
    47b9:	48 8b 5b 10          	mov    0x10(%rbx),%rbx
    47bd:	be 38 00 00 00       	mov    $0x38,%esi
    47c2:	e8 59 eb ff ff       	call   3320 <_ZdlPvm@plt>
    47c7:	48 85 db             	test   %rbx,%rbx
    47ca:	4c 8b 4c 24 18       	mov    0x18(%rsp),%r9
    47cf:	75 d7                	jne    47a8 <_ZNSt8_Rb_treeISt17basic_string_viewIcSt11char_traitsIcEESt4pairIKS3_St14_List_iteratorIN8argparse8ArgumentEEESt10_Select1stISA_ESt4lessIvESaISA_EE8_M_eraseEPSt13_Rb_tree_nodeISA_E.isra.0+0x88>
    47d1:	49 8b 59 10          	mov    0x10(%r9),%rbx
    47d5:	be 38 00 00 00       	mov    $0x38,%esi
    47da:	4c 89 cf             	mov    %r9,%rdi
    47dd:	e8 3e eb ff ff       	call   3320 <_ZdlPvm@plt>
    47e2:	48 85 db             	test   %rbx,%rbx
    47e5:	74 69                	je     4850 <_ZNSt8_Rb_treeISt17basic_string_viewIcSt11char_traitsIcEESt4pairIKS3_St14_List_iteratorIN8argparse8ArgumentEEESt10_Select1stISA_ESt4lessIvESaISA_EE8_M_eraseEPSt13_Rb_tree_nodeISA_E.isra.0+0x130>
    47e7:	49 89 d9             	mov    %rbx,%r9
    47ea:	eb b3                	jmp    479f <_ZNSt8_Rb_treeISt17basic_string_viewIcSt11char_traitsIcEESt4pairIKS3_St14_List_iteratorIN8argparse8ArgumentEEESt10_Select1stISA_ESt4lessIvESaISA_EE8_M_eraseEPSt13_Rb_tree_nodeISA_E.isra.0+0x7f>
    47ec:	4c 8b 65 10          	mov    0x10(%rbp),%r12
    47f0:	be 38 00 00 00       	mov    $0x38,%esi
    47f5:	48 89 ef             	mov    %rbp,%rdi
    47f8:	e8 23 eb ff ff       	call   3320 <_ZdlPvm@plt>
    47fd:	4d 85 e4             	test   %r12,%r12
    4800:	74 2c                	je     482e <_ZNSt8_Rb_treeISt17basic_string_viewIcSt11char_traitsIcEESt4pairIKS3_St14_List_iteratorIN8argparse8ArgumentEEESt10_Select1stISA_ESt4lessIvESaISA_EE8_M_eraseEPSt13_Rb_tree_nodeISA_E.isra.0+0x10e>
    4802:	4c 89 e5             	mov    %r12,%rbp
    4805:	e9 75 ff ff ff       	jmp    477f <_ZNSt8_Rb_treeISt17basic_string_viewIcSt11char_traitsIcEESt4pairIKS3_St14_List_iteratorIN8argparse8ArgumentEEESt10_Select1stISA_ESt4lessIvESaISA_EE8_M_eraseEPSt13_Rb_tree_nodeISA_E.isra.0+0x5f>
    480a:	66 0f 1f 44 00 00    	nopw   0x0(%rax,%rax,1)
    4810:	4d 8b 65 10          	mov    0x10(%r13),%r12
    4814:	be 38 00 00 00       	mov    $0x38,%esi
    4819:	4c 89 ef             	mov    %r13,%rdi
    481c:	e8 ff ea ff ff       	call   3320 <_ZdlPvm@plt>
    4821:	4d 85 e4             	test   %r12,%r12
    4824:	74 c6                	je     47ec <_ZNSt8_Rb_treeISt17basic_string_viewIcSt11char_traitsIcEESt4pairIKS3_St14_List_iteratorIN8argparse8ArgumentEEESt10_Select1stISA_ESt4lessIvESaISA_EE8_M_eraseEPSt13_Rb_tree_nodeISA_E.isra.0+0xcc>
    4826:	4d 89 e5             	mov    %r12,%r13
    4829:	e9 5a ff ff ff       	jmp    4788 <_ZNSt8_Rb_treeISt17basic_string_viewIcSt11char_traitsIcEESt4pairIKS3_St14_List_iteratorIN8argparse8ArgumentEEESt10_Select1stISA_ESt4lessIvESaISA_EE8_M_eraseEPSt13_Rb_tree_nodeISA_E.isra.0+0x68>
    482e:	48 8b 7c 24 08       	mov    0x8(%rsp),%rdi
    4833:	be 38 00 00 00       	mov    $0x38,%esi
    4838:	48 8b 6f 10          	mov    0x10(%rdi),%rbp
    483c:	e8 df ea ff ff       	call   3320 <_ZdlPvm@plt>
    4841:	48 85 ed             	test   %rbp,%rbp
    4844:	74 33                	je     4879 <_ZNSt8_Rb_treeISt17basic_string_viewIcSt11char_traitsIcEESt4pairIKS3_St14_List_iteratorIN8argparse8ArgumentEEESt10_Select1stISA_ESt4lessIvESaISA_EE8_M_eraseEPSt13_Rb_tree_nodeISA_E.isra.0+0x159>
    4846:	48 89 6c 24 08       	mov    %rbp,0x8(%rsp)
    484b:	e9 1d ff ff ff       	jmp    476d <_ZNSt8_Rb_treeISt17basic_string_viewIcSt11char_traitsIcEESt4pairIKS3_St14_List_iteratorIN8argparse8ArgumentEEESt10_Select1stISA_ESt4lessIvESaISA_EE8_M_eraseEPSt13_Rb_tree_nodeISA_E.isra.0+0x4d>
    4850:	49 8b 44 24 10       	mov    0x10(%r12),%rax
    4855:	be 38 00 00 00       	mov    $0x38,%esi
    485a:	4c 89 e7             	mov    %r12,%rdi
    485d:	48 89 44 24 18       	mov    %rax,0x18(%rsp)
    4862:	e8 b9 ea ff ff       	call   3320 <_ZdlPvm@plt>
    4867:	48 8b 44 24 18       	mov    0x18(%rsp),%rax
    486c:	48 85 c0             	test   %rax,%rax
    486f:	74 9f                	je     4810 <_ZNSt8_Rb_treeISt17basic_string_viewIcSt11char_traitsIcEESt4pairIKS3_St14_List_iteratorIN8argparse8ArgumentEEESt10_Select1stISA_ESt4lessIvESaISA_EE8_M_eraseEPSt13_Rb_tree_nodeISA_E.isra.0+0xf0>
    4871:	49 89 c4             	mov    %rax,%r12
    4874:	e9 18 ff ff ff       	jmp    4791 <_ZNSt8_Rb_treeISt17basic_string_viewIcSt11char_traitsIcEESt4pairIKS3_St14_List_iteratorIN8argparse8ArgumentEEESt10_Select1stISA_ESt4lessIvESaISA_EE8_M_eraseEPSt13_Rb_tree_nodeISA_E.isra.0+0x71>
    4879:	49 8b 5f 10          	mov    0x10(%r15),%rbx
    487d:	be 38 00 00 00       	mov    $0x38,%esi
    4882:	4c 89 ff             	mov    %r15,%rdi
    4885:	e8 96 ea ff ff       	call   3320 <_ZdlPvm@plt>
    488a:	48 85 db             	test   %rbx,%rbx
    488d:	74 08                	je     4897 <_ZNSt8_Rb_treeISt17basic_string_viewIcSt11char_traitsIcEESt4pairIKS3_St14_List_iteratorIN8argparse8ArgumentEEESt10_Select1stISA_ESt4lessIvESaISA_EE8_M_eraseEPSt13_Rb_tree_nodeISA_E.isra.0+0x177>
    488f:	49 89 df             	mov    %rbx,%r15
    4892:	e9 c4 fe ff ff       	jmp    475b <_ZNSt8_Rb_treeISt17basic_string_viewIcSt11char_traitsIcEESt4pairIKS3_St14_List_iteratorIN8argparse8ArgumentEEESt10_Select1stISA_ESt4lessIvESaISA_EE8_M_eraseEPSt13_Rb_tree_nodeISA_E.isra.0+0x3b>
    4897:	49 8b 5e 10          	mov    0x10(%r14),%rbx
    489b:	be 38 00 00 00       	mov    $0x38,%esi
    48a0:	4c 89 f7             	mov    %r14,%rdi
    48a3:	e8 78 ea ff ff       	call   3320 <_ZdlPvm@plt>
    48a8:	48 85 db             	test   %rbx,%rbx
    48ab:	74 08                	je     48b5 <_ZNSt8_Rb_treeISt17basic_string_viewIcSt11char_traitsIcEESt4pairIKS3_St14_List_iteratorIN8argparse8ArgumentEEESt10_Select1stISA_ESt4lessIvESaISA_EE8_M_eraseEPSt13_Rb_tree_nodeISA_E.isra.0+0x195>
    48ad:	49 89 de             	mov    %rbx,%r14
    48b0:	e9 99 fe ff ff       	jmp    474e <_ZNSt8_Rb_treeISt17basic_string_viewIcSt11char_traitsIcEESt4pairIKS3_St14_List_iteratorIN8argparse8ArgumentEEESt10_Select1stISA_ESt4lessIvESaISA_EE8_M_eraseEPSt13_Rb_tree_nodeISA_E.isra.0+0x2e>
    48b5:	48 8b 7c 24 10       	mov    0x10(%rsp),%rdi
    48ba:	be 38 00 00 00       	mov    $0x38,%esi
    48bf:	48 8b 5f 10          	mov    0x10(%rdi),%rbx
    48c3:	e8 58 ea ff ff       	call   3320 <_ZdlPvm@plt>
    48c8:	48 85 db             	test   %rbx,%rbx
    48cb:	74 0a                	je     48d7 <_ZNSt8_Rb_treeISt17basic_string_viewIcSt11char_traitsIcEESt4pairIKS3_St14_List_iteratorIN8argparse8ArgumentEEESt10_Select1stISA_ESt4lessIvESaISA_EE8_M_eraseEPSt13_Rb_tree_nodeISA_E.isra.0+0x1b7>
    48cd:	48 89 5c 24 10       	mov    %rbx,0x10(%rsp)
    48d2:	e9 65 fe ff ff       	jmp    473c <_ZNSt8_Rb_treeISt17basic_string_viewIcSt11char_traitsIcEESt4pairIKS3_St14_List_iteratorIN8argparse8ArgumentEEESt10_Select1stISA_ESt4lessIvESaISA_EE8_M_eraseEPSt13_Rb_tree_nodeISA_E.isra.0+0x1c>
    48d7:	48 83 c4 28          	add    $0x28,%rsp
    48db:	5b                   	pop    %rbx
    48dc:	5d                   	pop    %rbp
    48dd:	41 5c                	pop    %r12
    48df:	41 5d                	pop    %r13
    48e1:	41 5e                	pop    %r14
    48e3:	41 5f                	pop    %r15
    48e5:	c3                   	ret    
    48e6:	66 2e 0f 1f 84 00 00 	cs nopw 0x0(%rax,%rax,1)
    48ed:	00 00 00 

00000000000048f0 <_ZNSt7__cxx1112basic_stringIcSt11char_traitsIcESaIcEEC2IS3_EEPKcRKS3_.constprop.0>:
    48f0:	41 55                	push   %r13
    48f2:	4c 8d 6f 10          	lea    0x10(%rdi),%r13
    48f6:	41 54                	push   %r12
    48f8:	55                   	push   %rbp
    48f9:	53                   	push   %rbx
    48fa:	48 83 ec 18          	sub    $0x18,%rsp
    48fe:	64 48 8b 04 25 28 00 	mov    %fs:0x28,%rax
    4905:	00 00 
    4907:	48 89 44 24 08       	mov    %rax,0x8(%rsp)
    490c:	31 c0                	xor    %eax,%eax
    490e:	4c 89 2f             	mov    %r13,(%rdi)
    4911:	48 85 f6             	test   %rsi,%rsi
    4914:	0f 84 89 00 00 00    	je     49a3 <_ZNSt7__cxx1112basic_stringIcSt11char_traitsIcESaIcEEC2IS3_EEPKcRKS3_.constprop.0+0xb3>
    491a:	48 89 fb             	mov    %rdi,%rbx
    491d:	48 89 f7             	mov    %rsi,%rdi
    4920:	48 89 f5             	mov    %rsi,%rbp
    4923:	e8 08 ea ff ff       	call   3330 <strlen@plt>
    4928:	48 89 04 24          	mov    %rax,(%rsp)
    492c:	49 89 c4             	mov    %rax,%r12
    492f:	48 83 f8 0f          	cmp    $0xf,%rax
    4933:	77 3e                	ja     4973 <_ZNSt7__cxx1112basic_stringIcSt11char_traitsIcESaIcEEC2IS3_EEPKcRKS3_.constprop.0+0x83>
    4935:	48 83 f8 01          	cmp    $0x1,%rax
    4939:	75 31                	jne    496c <_ZNSt7__cxx1112basic_stringIcSt11char_traitsIcESaIcEEC2IS3_EEPKcRKS3_.constprop.0+0x7c>
    493b:	0f b6 45 00          	movzbl 0x0(%rbp),%eax
    493f:	88 43 10             	mov    %al,0x10(%rbx)
    4942:	48 8b 04 24          	mov    (%rsp),%rax
    4946:	48 8b 13             	mov    (%rbx),%rdx
    4949:	48 89 43 08          	mov    %rax,0x8(%rbx)
    494d:	c6 04 02 00          	movb   $0x0,(%rdx,%rax,1)
    4951:	48 8b 44 24 08       	mov    0x8(%rsp),%rax
    4956:	64 48 2b 04 25 28 00 	sub    %fs:0x28,%rax
    495d:	00 00 
    495f:	75 3d                	jne    499e <_ZNSt7__cxx1112basic_stringIcSt11char_traitsIcESaIcEEC2IS3_EEPKcRKS3_.constprop.0+0xae>
    4961:	48 83 c4 18          	add    $0x18,%rsp
    4965:	5b                   	pop    %rbx
    4966:	5d                   	pop    %rbp
    4967:	41 5c                	pop    %r12
    4969:	41 5d                	pop    %r13
    496b:	c3                   	ret    
    496c:	48 85 c0             	test   %rax,%rax
    496f:	74 d1                	je     4942 <_ZNSt7__cxx1112basic_stringIcSt11char_traitsIcESaIcEEC2IS3_EEPKcRKS3_.constprop.0+0x52>
    4971:	eb 1b                	jmp    498e <_ZNSt7__cxx1112basic_stringIcSt11char_traitsIcESaIcEEC2IS3_EEPKcRKS3_.constprop.0+0x9e>
    4973:	48 89 e6             	mov    %rsp,%rsi
    4976:	31 d2                	xor    %edx,%edx
    4978:	48 89 df             	mov    %rbx,%rdi
    497b:	e8 80 e9 ff ff       	call   3300 <_ZNSt7__cxx1112basic_stringIcSt11char_traitsIcESaIcEE9_M_createERmm@plt>
    4980:	48 89 03             	mov    %rax,(%rbx)
    4983:	49 89 c5             	mov    %rax,%r13
    4986:	48 8b 04 24          	mov    (%rsp),%rax
    498a:	48 89 43 10          	mov    %rax,0x10(%rbx)
    498e:	4c 89 e2             	mov    %r12,%rdx
    4991:	48 89 ee             	mov    %rbp,%rsi
    4994:	4c 89 ef             	mov    %r13,%rdi
    4997:	e8 a4 e7 ff ff       	call   3140 <memcpy@plt>
    499c:	eb a4                	jmp    4942 <_ZNSt7__cxx1112basic_stringIcSt11char_traitsIcESaIcEEC2IS3_EEPKcRKS3_.constprop.0+0x52>
    499e:	e8 ad e7 ff ff       	call   3150 <__stack_chk_fail@plt>
    49a3:	48 8d 3d 56 b6 00 00 	lea    0xb656(%rip),%rdi        # 10000 <_fini+0xddf>
    49aa:	e8 11 ea ff ff       	call   33c0 <_ZSt19__throw_logic_errorPKc@plt>
    49af:	90                   	nop

00000000000049b0 <_ZSt13__adjust_heapIN9__gnu_cxx17__normal_iteratorIPNSt7__cxx1112basic_stringIcSt11char_traitsIcESaIcEEESt6vectorIS7_SaIS7_EEEElS7_NS0_5__ops15_Iter_comp_iterIZN8argparse8ArgumentC4ILm1EJLm0EEEEOSt5arrayISt17basic_string_viewIcS5_EXT_EESt16integer_sequenceImJXspT0_EEEEUlRKT_RKT0_E_EEEvSP_SS_SS_T1_T2_.isra.0>:
    49b0:	41 57                	push   %r15
    49b2:	49 89 c9             	mov    %rcx,%r9
    49b5:	49 89 ff             	mov    %rdi,%r15
    49b8:	41 56                	push   %r14
    49ba:	41 55                	push   %r13
    49bc:	49 89 f5             	mov    %rsi,%r13
    49bf:	41 54                	push   %r12
    49c1:	55                   	push   %rbp
    49c2:	53                   	push   %rbx
    49c3:	48 89 f3             	mov    %rsi,%rbx
    49c6:	48 c1 e3 05          	shl    $0x5,%rbx
    49ca:	48 83 ec 68          	sub    $0x68,%rsp
    49ce:	48 89 54 24 28       	mov    %rdx,0x28(%rsp)
    49d3:	48 01 fb             	add    %rdi,%rbx
    49d6:	4c 8d 73 10          	lea    0x10(%rbx),%r14
    49da:	64 48 8b 04 25 28 00 	mov    %fs:0x28,%rax
    49e1:	00 00 
    49e3:	48 89 44 24 58       	mov    %rax,0x58(%rsp)
    49e8:	31 c0                	xor    %eax,%eax
    49ea:	48 8d 42 ff          	lea    -0x1(%rdx),%rax
    49ee:	49 89 c0             	mov    %rax,%r8
    49f1:	49 c1 e8 3f          	shr    $0x3f,%r8
    49f5:	49 01 c0             	add    %rax,%r8
    49f8:	49 d1 f8             	sar    %r8
    49fb:	4c 39 c6             	cmp    %r8,%rsi
    49fe:	0f 8d 8c 05 00 00    	jge    4f90 <_ZSt13__adjust_heapIN9__gnu_cxx17__normal_iteratorIPNSt7__cxx1112basic_stringIcSt11char_traitsIcESaIcEEESt6vectorIS7_SaIS7_EEEElS7_NS0_5__ops15_Iter_comp_iterIZN8argparse8ArgumentC4ILm1EJLm0EEEEOSt5arrayISt17basic_string_viewIcS5_EXT_EESt16integer_sequenceImJXspT0_EEEEUlRKT_RKT0_E_EEEvSP_SS_SS_T1_T2_.isra.0+0x5e0>
    4a04:	49 89 f4             	mov    %rsi,%r12
    4a07:	eb 78                	jmp    4a81 <_ZSt13__adjust_heapIN9__gnu_cxx17__normal_iteratorIPNSt7__cxx1112basic_stringIcSt11char_traitsIcESaIcEEESt6vectorIS7_SaIS7_EEEElS7_NS0_5__ops15_Iter_comp_iterIZN8argparse8ArgumentC4ILm1EJLm0EEEEOSt5arrayISt17basic_string_viewIcS5_EXT_EESt16integer_sequenceImJXspT0_EEEEUlRKT_RKT0_E_EEEvSP_SS_SS_T1_T2_.isra.0+0xd1>
    4a09:	0f 1f 80 00 00 00 00 	nopl   0x0(%rax)
    4a10:	48 0f 43 d0          	cmovae %rax,%rdx
    4a14:	48 0f 43 d9          	cmovae %rcx,%rbx
    4a18:	49 0f 43 eb          	cmovae %r11,%rbp
    4a1c:	49 c1 e4 05          	shl    $0x5,%r12
    4a20:	48 8b 03             	mov    (%rbx),%rax
    4a23:	4d 01 fc             	add    %r15,%r12
    4a26:	48 8d 4b 10          	lea    0x10(%rbx),%rcx
    4a2a:	49 8b 3c 24          	mov    (%r12),%rdi
    4a2e:	48 39 c8             	cmp    %rcx,%rax
    4a31:	0f 84 d1 00 00 00    	je     4b08 <_ZSt13__adjust_heapIN9__gnu_cxx17__normal_iteratorIPNSt7__cxx1112basic_stringIcSt11char_traitsIcESaIcEEESt6vectorIS7_SaIS7_EEEElS7_NS0_5__ops15_Iter_comp_iterIZN8argparse8ArgumentC4ILm1EJLm0EEEEOSt5arrayISt17basic_string_viewIcS5_EXT_EESt16integer_sequenceImJXspT0_EEEEUlRKT_RKT0_E_EEEvSP_SS_SS_T1_T2_.isra.0+0x158>
    4a37:	4c 39 f7             	cmp    %r14,%rdi
    4a3a:	0f 84 28 03 00 00    	je     4d68 <_ZSt13__adjust_heapIN9__gnu_cxx17__normal_iteratorIPNSt7__cxx1112basic_stringIcSt11char_traitsIcESaIcEEESt6vectorIS7_SaIS7_EEEElS7_NS0_5__ops15_Iter_comp_iterIZN8argparse8ArgumentC4ILm1EJLm0EEEEOSt5arrayISt17basic_string_viewIcS5_EXT_EESt16integer_sequenceImJXspT0_EEEEUlRKT_RKT0_E_EEEvSP_SS_SS_T1_T2_.isra.0+0x3b8>
    4a40:	49 89 04 24          	mov    %rax,(%r12)
    4a44:	49 89 54 24 08       	mov    %rdx,0x8(%r12)
    4a49:	49 8b 74 24 10       	mov    0x10(%r12),%rsi
    4a4e:	48 8b 43 10          	mov    0x10(%rbx),%rax
    4a52:	49 89 44 24 10       	mov    %rax,0x10(%r12)
    4a57:	48 85 ff             	test   %rdi,%rdi
    4a5a:	0f 84 1a 03 00 00    	je     4d7a <_ZSt13__adjust_heapIN9__gnu_cxx17__normal_iteratorIPNSt7__cxx1112basic_stringIcSt11char_traitsIcESaIcEEESt6vectorIS7_SaIS7_EEEElS7_NS0_5__ops15_Iter_comp_iterIZN8argparse8ArgumentC4ILm1EJLm0EEEEOSt5arrayISt17basic_string_viewIcS5_EXT_EESt16integer_sequenceImJXspT0_EEEEUlRKT_RKT0_E_EEEvSP_SS_SS_T1_T2_.isra.0+0x3ca>
    4a60:	48 89 3b             	mov    %rdi,(%rbx)
    4a63:	48 89 73 10          	mov    %rsi,0x10(%rbx)
    4a67:	48 c7 43 08 00 00 00 	movq   $0x0,0x8(%rbx)
    4a6e:	00 
    4a6f:	c6 07 00             	movb   $0x0,(%rdi)
    4a72:	4c 39 c5             	cmp    %r8,%rbp
    4a75:	0f 8d e8 00 00 00    	jge    4b63 <_ZSt13__adjust_heapIN9__gnu_cxx17__normal_iteratorIPNSt7__cxx1112basic_stringIcSt11char_traitsIcESaIcEEESt6vectorIS7_SaIS7_EEEElS7_NS0_5__ops15_Iter_comp_iterIZN8argparse8ArgumentC4ILm1EJLm0EEEEOSt5arrayISt17basic_string_viewIcS5_EXT_EESt16integer_sequenceImJXspT0_EEEEUlRKT_RKT0_E_EEEvSP_SS_SS_T1_T2_.isra.0+0x1b3>
    4a7b:	49 89 ce             	mov    %rcx,%r14
    4a7e:	49 89 ec             	mov    %rbp,%r12
    4a81:	49 8d 4c 24 01       	lea    0x1(%r12),%rcx
    4a86:	4c 8d 1c 09          	lea    (%rcx,%rcx,1),%r11
    4a8a:	49 8d 6b ff          	lea    -0x1(%r11),%rbp
    4a8e:	48 89 eb             	mov    %rbp,%rbx
    4a91:	48 c1 e3 05          	shl    $0x5,%rbx
    4a95:	48 c1 e1 06          	shl    $0x6,%rcx
    4a99:	4c 01 fb             	add    %r15,%rbx
    4a9c:	4c 01 f9             	add    %r15,%rcx
    4a9f:	48 8b 41 08          	mov    0x8(%rcx),%rax
    4aa3:	48 8b 53 08          	mov    0x8(%rbx),%rdx
    4aa7:	48 39 d0             	cmp    %rdx,%rax
    4aaa:	0f 85 60 ff ff ff    	jne    4a10 <_ZSt13__adjust_heapIN9__gnu_cxx17__normal_iteratorIPNSt7__cxx1112basic_stringIcSt11char_traitsIcESaIcEEESt6vectorIS7_SaIS7_EEEElS7_NS0_5__ops15_Iter_comp_iterIZN8argparse8ArgumentC4ILm1EJLm0EEEEOSt5arrayISt17basic_string_viewIcS5_EXT_EESt16integer_sequenceImJXspT0_EEEEUlRKT_RKT0_E_EEEvSP_SS_SS_T1_T2_.isra.0+0x60>
    4ab0:	48 85 d2             	test   %rdx,%rdx
    4ab3:	0f 84 97 03 00 00    	je     4e50 <_ZSt13__adjust_heapIN9__gnu_cxx17__normal_iteratorIPNSt7__cxx1112basic_stringIcSt11char_traitsIcESaIcEEESt6vectorIS7_SaIS7_EEEElS7_NS0_5__ops15_Iter_comp_iterIZN8argparse8ArgumentC4ILm1EJLm0EEEEOSt5arrayISt17basic_string_viewIcS5_EXT_EESt16integer_sequenceImJXspT0_EEEEUlRKT_RKT0_E_EEEvSP_SS_SS_T1_T2_.isra.0+0x4a0>
    4ab9:	48 8b 33             	mov    (%rbx),%rsi
    4abc:	48 8b 39             	mov    (%rcx),%rdi
    4abf:	4c 89 44 24 20       	mov    %r8,0x20(%rsp)
    4ac4:	4c 89 4c 24 18       	mov    %r9,0x18(%rsp)
    4ac9:	4c 89 5c 24 10       	mov    %r11,0x10(%rsp)
    4ace:	48 89 54 24 08       	mov    %rdx,0x8(%rsp)
    4ad3:	48 89 0c 24          	mov    %rcx,(%rsp)
    4ad7:	e8 94 e7 ff ff       	call   3270 <memcmp@plt>
    4adc:	48 8b 0c 24          	mov    (%rsp),%rcx
    4ae0:	4c 8b 5c 24 10       	mov    0x10(%rsp),%r11
    4ae5:	85 c0                	test   %eax,%eax
    4ae7:	48 0f 49 d9          	cmovns %rcx,%rbx
    4aeb:	49 0f 49 eb          	cmovns %r11,%rbp
    4aef:	48 8b 54 24 08       	mov    0x8(%rsp),%rdx
    4af4:	4c 8b 4c 24 18       	mov    0x18(%rsp),%r9
    4af9:	4c 8b 44 24 20       	mov    0x20(%rsp),%r8
    4afe:	e9 19 ff ff ff       	jmp    4a1c <_ZSt13__adjust_heapIN9__gnu_cxx17__normal_iteratorIPNSt7__cxx1112basic_stringIcSt11char_traitsIcESaIcEEESt6vectorIS7_SaIS7_EEEElS7_NS0_5__ops15_Iter_comp_iterIZN8argparse8ArgumentC4ILm1EJLm0EEEEOSt5arrayISt17basic_string_viewIcS5_EXT_EESt16integer_sequenceImJXspT0_EEEEUlRKT_RKT0_E_EEEvSP_SS_SS_T1_T2_.isra.0+0x6c>
    4b03:	0f 1f 44 00 00       	nopl   0x0(%rax,%rax,1)
    4b08:	48 85 d2             	test   %rdx,%rdx
    4b0b:	74 36                	je     4b43 <_ZSt13__adjust_heapIN9__gnu_cxx17__normal_iteratorIPNSt7__cxx1112basic_stringIcSt11char_traitsIcESaIcEEESt6vectorIS7_SaIS7_EEEElS7_NS0_5__ops15_Iter_comp_iterIZN8argparse8ArgumentC4ILm1EJLm0EEEEOSt5arrayISt17basic_string_viewIcS5_EXT_EESt16integer_sequenceImJXspT0_EEEEUlRKT_RKT0_E_EEEvSP_SS_SS_T1_T2_.isra.0+0x193>
    4b0d:	48 83 fa 01          	cmp    $0x1,%rdx
    4b11:	0f 84 99 03 00 00    	je     4eb0 <_ZSt13__adjust_heapIN9__gnu_cxx17__normal_iteratorIPNSt7__cxx1112basic_stringIcSt11char_traitsIcESaIcEEESt6vectorIS7_SaIS7_EEEElS7_NS0_5__ops15_Iter_comp_iterIZN8argparse8ArgumentC4ILm1EJLm0EEEEOSt5arrayISt17basic_string_viewIcS5_EXT_EESt16integer_sequenceImJXspT0_EEEEUlRKT_RKT0_E_EEEvSP_SS_SS_T1_T2_.isra.0+0x500>
    4b17:	48 89 ce             	mov    %rcx,%rsi
    4b1a:	4c 89 44 24 10       	mov    %r8,0x10(%rsp)
    4b1f:	4c 89 4c 24 08       	mov    %r9,0x8(%rsp)
    4b24:	48 89 0c 24          	mov    %rcx,(%rsp)
    4b28:	e8 13 e6 ff ff       	call   3140 <memcpy@plt>
    4b2d:	48 8b 53 08          	mov    0x8(%rbx),%rdx
    4b31:	49 8b 3c 24          	mov    (%r12),%rdi
    4b35:	4c 8b 44 24 10       	mov    0x10(%rsp),%r8
    4b3a:	4c 8b 4c 24 08       	mov    0x8(%rsp),%r9
    4b3f:	48 8b 0c 24          	mov    (%rsp),%rcx
    4b43:	49 89 54 24 08       	mov    %rdx,0x8(%r12)
    4b48:	c6 04 17 00          	movb   $0x0,(%rdi,%rdx,1)
    4b4c:	48 c7 43 08 00 00 00 	movq   $0x0,0x8(%rbx)
    4b53:	00 
    4b54:	48 8b 3b             	mov    (%rbx),%rdi
    4b57:	c6 07 00             	movb   $0x0,(%rdi)
    4b5a:	4c 39 c5             	cmp    %r8,%rbp
    4b5d:	0f 8c 18 ff ff ff    	jl     4a7b <_ZSt13__adjust_heapIN9__gnu_cxx17__normal_iteratorIPNSt7__cxx1112basic_stringIcSt11char_traitsIcESaIcEEESt6vectorIS7_SaIS7_EEEElS7_NS0_5__ops15_Iter_comp_iterIZN8argparse8ArgumentC4ILm1EJLm0EEEEOSt5arrayISt17basic_string_viewIcS5_EXT_EESt16integer_sequenceImJXspT0_EEEEUlRKT_RKT0_E_EEEvSP_SS_SS_T1_T2_.isra.0+0xcb>
    4b63:	48 8b 44 24 28       	mov    0x28(%rsp),%rax
    4b68:	a8 01                	test   $0x1,%al
    4b6a:	75 1d                	jne    4b89 <_ZSt13__adjust_heapIN9__gnu_cxx17__normal_iteratorIPNSt7__cxx1112basic_stringIcSt11char_traitsIcESaIcEEESt6vectorIS7_SaIS7_EEEElS7_NS0_5__ops15_Iter_comp_iterIZN8argparse8ArgumentC4ILm1EJLm0EEEEOSt5arrayISt17basic_string_viewIcS5_EXT_EESt16integer_sequenceImJXspT0_EEEEUlRKT_RKT0_E_EEEvSP_SS_SS_T1_T2_.isra.0+0x1d9>
    4b6c:	49 89 c6             	mov    %rax,%r14
    4b6f:	49 83 ee 02          	sub    $0x2,%r14
    4b73:	4c 89 f0             	mov    %r14,%rax
    4b76:	48 c1 e8 3f          	shr    $0x3f,%rax
    4b7a:	49 01 c6             	add    %rax,%r14
    4b7d:	49 d1 fe             	sar    %r14
    4b80:	49 39 ee             	cmp    %rbp,%r14
    4b83:	0f 84 6f 03 00 00    	je     4ef8 <_ZSt13__adjust_heapIN9__gnu_cxx17__normal_iteratorIPNSt7__cxx1112basic_stringIcSt11char_traitsIcESaIcEEESt6vectorIS7_SaIS7_EEEElS7_NS0_5__ops15_Iter_comp_iterIZN8argparse8ArgumentC4ILm1EJLm0EEEEOSt5arrayISt17basic_string_viewIcS5_EXT_EESt16integer_sequenceImJXspT0_EEEEUlRKT_RKT0_E_EEEvSP_SS_SS_T1_T2_.isra.0+0x548>
    4b89:	4d 8b 11             	mov    (%r9),%r10
    4b8c:	4c 8d 64 24 40       	lea    0x40(%rsp),%r12
    4b91:	49 8d 41 10          	lea    0x10(%r9),%rax
    4b95:	4c 89 64 24 30       	mov    %r12,0x30(%rsp)
    4b9a:	49 39 c2             	cmp    %rax,%r10
    4b9d:	0f 84 3d 03 00 00    	je     4ee0 <_ZSt13__adjust_heapIN9__gnu_cxx17__normal_iteratorIPNSt7__cxx1112basic_stringIcSt11char_traitsIcESaIcEEESt6vectorIS7_SaIS7_EEEElS7_NS0_5__ops15_Iter_comp_iterIZN8argparse8ArgumentC4ILm1EJLm0EEEEOSt5arrayISt17basic_string_viewIcS5_EXT_EESt16integer_sequenceImJXspT0_EEEEUlRKT_RKT0_E_EEEvSP_SS_SS_T1_T2_.isra.0+0x530>
    4ba3:	49 8b 51 10          	mov    0x10(%r9),%rdx
    4ba7:	4c 89 54 24 30       	mov    %r10,0x30(%rsp)
    4bac:	48 89 54 24 40       	mov    %rdx,0x40(%rsp)
    4bb1:	49 89 01             	mov    %rax,(%r9)
    4bb4:	48 8d 45 ff          	lea    -0x1(%rbp),%rax
    4bb8:	49 89 c6             	mov    %rax,%r14
    4bbb:	49 8b 71 08          	mov    0x8(%r9),%rsi
    4bbf:	49 c1 ee 3f          	shr    $0x3f,%r14
    4bc3:	49 01 c6             	add    %rax,%r14
    4bc6:	48 89 74 24 38       	mov    %rsi,0x38(%rsp)
    4bcb:	49 c7 41 08 00 00 00 	movq   $0x0,0x8(%r9)
    4bd2:	00 
    4bd3:	41 c6 41 10 00       	movb   $0x0,0x10(%r9)
    4bd8:	49 d1 fe             	sar    %r14
    4bdb:	4c 39 ed             	cmp    %r13,%rbp
    4bde:	0f 8f 8d 00 00 00    	jg     4c71 <_ZSt13__adjust_heapIN9__gnu_cxx17__normal_iteratorIPNSt7__cxx1112basic_stringIcSt11char_traitsIcESaIcEEESt6vectorIS7_SaIS7_EEEElS7_NS0_5__ops15_Iter_comp_iterIZN8argparse8ArgumentC4ILm1EJLm0EEEEOSt5arrayISt17basic_string_viewIcS5_EXT_EESt16integer_sequenceImJXspT0_EEEEUlRKT_RKT0_E_EEEvSP_SS_SS_T1_T2_.isra.0+0x2c1>
    4be4:	e9 a4 02 00 00       	jmp    4e8d <_ZSt13__adjust_heapIN9__gnu_cxx17__normal_iteratorIPNSt7__cxx1112basic_stringIcSt11char_traitsIcESaIcEEESt6vectorIS7_SaIS7_EEEElS7_NS0_5__ops15_Iter_comp_iterIZN8argparse8ArgumentC4ILm1EJLm0EEEEOSt5arrayISt17basic_string_viewIcS5_EXT_EESt16integer_sequenceImJXspT0_EEEEUlRKT_RKT0_E_EEEvSP_SS_SS_T1_T2_.isra.0+0x4dd>
    4be9:	0f 1f 80 00 00 00 00 	nopl   0x0(%rax)
    4bf0:	0f 86 d2 02 00 00    	jbe    4ec8 <_ZSt13__adjust_heapIN9__gnu_cxx17__normal_iteratorIPNSt7__cxx1112basic_stringIcSt11char_traitsIcESaIcEEESt6vectorIS7_SaIS7_EEEElS7_NS0_5__ops15_Iter_comp_iterIZN8argparse8ArgumentC4ILm1EJLm0EEEEOSt5arrayISt17basic_string_viewIcS5_EXT_EESt16integer_sequenceImJXspT0_EEEEUlRKT_RKT0_E_EEEvSP_SS_SS_T1_T2_.isra.0+0x518>
    4bf6:	48 c1 e5 05          	shl    $0x5,%rbp
    4bfa:	4c 8b 03             	mov    (%rbx),%r8
    4bfd:	4c 01 fd             	add    %r15,%rbp
    4c00:	48 8d 73 10          	lea    0x10(%rbx),%rsi
    4c04:	48 8b 7d 00          	mov    0x0(%rbp),%rdi
    4c08:	49 39 f0             	cmp    %rsi,%r8
    4c0b:	0f 84 ef 01 00 00    	je     4e00 <_ZSt13__adjust_heapIN9__gnu_cxx17__normal_iteratorIPNSt7__cxx1112basic_stringIcSt11char_traitsIcESaIcEEESt6vectorIS7_SaIS7_EEEElS7_NS0_5__ops15_Iter_comp_iterIZN8argparse8ArgumentC4ILm1EJLm0EEEEOSt5arrayISt17basic_string_viewIcS5_EXT_EESt16integer_sequenceImJXspT0_EEEEUlRKT_RKT0_E_EEEvSP_SS_SS_T1_T2_.isra.0+0x450>
    4c11:	48 39 f9             	cmp    %rdi,%rcx
    4c14:	0f 84 be 01 00 00    	je     4dd8 <_ZSt13__adjust_heapIN9__gnu_cxx17__normal_iteratorIPNSt7__cxx1112basic_stringIcSt11char_traitsIcESaIcEEESt6vectorIS7_SaIS7_EEEElS7_NS0_5__ops15_Iter_comp_iterIZN8argparse8ArgumentC4ILm1EJLm0EEEEOSt5arrayISt17basic_string_viewIcS5_EXT_EESt16integer_sequenceImJXspT0_EEEEUlRKT_RKT0_E_EEEvSP_SS_SS_T1_T2_.isra.0+0x428>
    4c1a:	4c 89 45 00          	mov    %r8,0x0(%rbp)
    4c1e:	48 89 55 08          	mov    %rdx,0x8(%rbp)
    4c22:	48 8b 45 10          	mov    0x10(%rbp),%rax
    4c26:	48 8b 53 10          	mov    0x10(%rbx),%rdx
    4c2a:	48 89 55 10          	mov    %rdx,0x10(%rbp)
    4c2e:	48 85 ff             	test   %rdi,%rdi
    4c31:	0f 84 b1 01 00 00    	je     4de8 <_ZSt13__adjust_heapIN9__gnu_cxx17__normal_iteratorIPNSt7__cxx1112basic_stringIcSt11char_traitsIcESaIcEEESt6vectorIS7_SaIS7_EEEElS7_NS0_5__ops15_Iter_comp_iterIZN8argparse8ArgumentC4ILm1EJLm0EEEEOSt5arrayISt17basic_string_viewIcS5_EXT_EESt16integer_sequenceImJXspT0_EEEEUlRKT_RKT0_E_EEEvSP_SS_SS_T1_T2_.isra.0+0x438>
    4c37:	48 89 3b             	mov    %rdi,(%rbx)
    4c3a:	48 89 43 10          	mov    %rax,0x10(%rbx)
    4c3e:	48 89 f1             	mov    %rsi,%rcx
    4c41:	49 8d 56 ff          	lea    -0x1(%r14),%rdx
    4c45:	48 c7 43 08 00 00 00 	movq   $0x0,0x8(%rbx)
    4c4c:	00 
    4c4d:	48 89 d0             	mov    %rdx,%rax
    4c50:	c6 07 00             	movb   $0x0,(%rdi)
    4c53:	48 c1 e8 3f          	shr    $0x3f,%rax
    4c57:	48 01 d0             	add    %rdx,%rax
    4c5a:	48 8b 74 24 38       	mov    0x38(%rsp),%rsi
    4c5f:	48 d1 f8             	sar    %rax
    4c62:	4d 39 f5             	cmp    %r14,%r13
    4c65:	0f 8d 1d 02 00 00    	jge    4e88 <_ZSt13__adjust_heapIN9__gnu_cxx17__normal_iteratorIPNSt7__cxx1112basic_stringIcSt11char_traitsIcESaIcEEESt6vectorIS7_SaIS7_EEEElS7_NS0_5__ops15_Iter_comp_iterIZN8argparse8ArgumentC4ILm1EJLm0EEEEOSt5arrayISt17basic_string_viewIcS5_EXT_EESt16integer_sequenceImJXspT0_EEEEUlRKT_RKT0_E_EEEvSP_SS_SS_T1_T2_.isra.0+0x4d8>
    4c6b:	4c 89 f5             	mov    %r14,%rbp
    4c6e:	49 89 c6             	mov    %rax,%r14
    4c71:	4c 89 f3             	mov    %r14,%rbx
    4c74:	48 c1 e3 05          	shl    $0x5,%rbx
    4c78:	4c 01 fb             	add    %r15,%rbx
    4c7b:	48 8b 53 08          	mov    0x8(%rbx),%rdx
    4c7f:	48 39 d6             	cmp    %rdx,%rsi
    4c82:	0f 85 68 ff ff ff    	jne    4bf0 <_ZSt13__adjust_heapIN9__gnu_cxx17__normal_iteratorIPNSt7__cxx1112basic_stringIcSt11char_traitsIcESaIcEEESt6vectorIS7_SaIS7_EEEElS7_NS0_5__ops15_Iter_comp_iterIZN8argparse8ArgumentC4ILm1EJLm0EEEEOSt5arrayISt17basic_string_viewIcS5_EXT_EESt16integer_sequenceImJXspT0_EEEEUlRKT_RKT0_E_EEEvSP_SS_SS_T1_T2_.isra.0+0x240>
    4c88:	4c 8b 54 24 30       	mov    0x30(%rsp),%r10
    4c8d:	48 85 d2             	test   %rdx,%rdx
    4c90:	0f 84 8a 01 00 00    	je     4e20 <_ZSt13__adjust_heapIN9__gnu_cxx17__normal_iteratorIPNSt7__cxx1112basic_stringIcSt11char_traitsIcESaIcEEESt6vectorIS7_SaIS7_EEEElS7_NS0_5__ops15_Iter_comp_iterIZN8argparse8ArgumentC4ILm1EJLm0EEEEOSt5arrayISt17basic_string_viewIcS5_EXT_EESt16integer_sequenceImJXspT0_EEEEUlRKT_RKT0_E_EEEvSP_SS_SS_T1_T2_.isra.0+0x470>
    4c96:	4c 8b 03             	mov    (%rbx),%r8
    4c99:	4c 89 d6             	mov    %r10,%rsi
    4c9c:	4c 89 c7             	mov    %r8,%rdi
    4c9f:	48 89 4c 24 18       	mov    %rcx,0x18(%rsp)
    4ca4:	48 89 54 24 10       	mov    %rdx,0x10(%rsp)
    4ca9:	4c 89 54 24 08       	mov    %r10,0x8(%rsp)
    4cae:	4c 89 04 24          	mov    %r8,(%rsp)
    4cb2:	e8 b9 e5 ff ff       	call   3270 <memcmp@plt>
    4cb7:	85 c0                	test   %eax,%eax
    4cb9:	4c 8b 04 24          	mov    (%rsp),%r8
    4cbd:	4c 8b 54 24 08       	mov    0x8(%rsp),%r10
    4cc2:	48 8b 54 24 10       	mov    0x10(%rsp),%rdx
    4cc7:	48 8b 4c 24 18       	mov    0x18(%rsp),%rcx
    4ccc:	0f 85 b6 00 00 00    	jne    4d88 <_ZSt13__adjust_heapIN9__gnu_cxx17__normal_iteratorIPNSt7__cxx1112basic_stringIcSt11char_traitsIcESaIcEEESt6vectorIS7_SaIS7_EEEElS7_NS0_5__ops15_Iter_comp_iterIZN8argparse8ArgumentC4ILm1EJLm0EEEEOSt5arrayISt17basic_string_viewIcS5_EXT_EESt16integer_sequenceImJXspT0_EEEEUlRKT_RKT0_E_EEEvSP_SS_SS_T1_T2_.isra.0+0x3d8>
    4cd2:	48 c1 e5 05          	shl    $0x5,%rbp
    4cd6:	49 8d 1c 2f          	lea    (%r15,%rbp,1),%rbx
    4cda:	48 8b 3b             	mov    (%rbx),%rdi
    4cdd:	4d 39 e2             	cmp    %r12,%r10
    4ce0:	0f 84 8a 02 00 00    	je     4f70 <_ZSt13__adjust_heapIN9__gnu_cxx17__normal_iteratorIPNSt7__cxx1112basic_stringIcSt11char_traitsIcESaIcEEESt6vectorIS7_SaIS7_EEEElS7_NS0_5__ops15_Iter_comp_iterIZN8argparse8ArgumentC4ILm1EJLm0EEEEOSt5arrayISt17basic_string_viewIcS5_EXT_EESt16integer_sequenceImJXspT0_EEEEUlRKT_RKT0_E_EEEvSP_SS_SS_T1_T2_.isra.0+0x5c0>
    4ce6:	48 8b 44 24 40       	mov    0x40(%rsp),%rax
    4ceb:	48 39 f9             	cmp    %rdi,%rcx
    4cee:	0f 84 6c 01 00 00    	je     4e60 <_ZSt13__adjust_heapIN9__gnu_cxx17__normal_iteratorIPNSt7__cxx1112basic_stringIcSt11char_traitsIcESaIcEEESt6vectorIS7_SaIS7_EEEElS7_NS0_5__ops15_Iter_comp_iterIZN8argparse8ArgumentC4ILm1EJLm0EEEEOSt5arrayISt17basic_string_viewIcS5_EXT_EESt16integer_sequenceImJXspT0_EEEEUlRKT_RKT0_E_EEEvSP_SS_SS_T1_T2_.isra.0+0x4b0>
    4cf4:	c4 e1 f9 6e ca       	vmovq  %rdx,%xmm1
    4cf9:	c4 e3 f1 22 c0 01    	vpinsrq $0x1,%rax,%xmm1,%xmm0
    4cff:	48 8b 4b 10          	mov    0x10(%rbx),%rcx
    4d03:	4c 89 13             	mov    %r10,(%rbx)
    4d06:	c5 fa 7f 43 08       	vmovdqu %xmm0,0x8(%rbx)
    4d0b:	48 85 ff             	test   %rdi,%rdi
    4d0e:	0f 84 5f 01 00 00    	je     4e73 <_ZSt13__adjust_heapIN9__gnu_cxx17__normal_iteratorIPNSt7__cxx1112basic_stringIcSt11char_traitsIcESaIcEEESt6vectorIS7_SaIS7_EEEElS7_NS0_5__ops15_Iter_comp_iterIZN8argparse8ArgumentC4ILm1EJLm0EEEEOSt5arrayISt17basic_string_viewIcS5_EXT_EESt16integer_sequenceImJXspT0_EEEEUlRKT_RKT0_E_EEEvSP_SS_SS_T1_T2_.isra.0+0x4c3>
    4d14:	48 89 7c 24 30       	mov    %rdi,0x30(%rsp)
    4d19:	48 89 4c 24 40       	mov    %rcx,0x40(%rsp)
    4d1e:	48 c7 44 24 38 00 00 	movq   $0x0,0x38(%rsp)
    4d25:	00 00 
    4d27:	c6 07 00             	movb   $0x0,(%rdi)
    4d2a:	48 8b 7c 24 30       	mov    0x30(%rsp),%rdi
    4d2f:	4c 39 e7             	cmp    %r12,%rdi
    4d32:	74 0e                	je     4d42 <_ZSt13__adjust_heapIN9__gnu_cxx17__normal_iteratorIPNSt7__cxx1112basic_stringIcSt11char_traitsIcESaIcEEESt6vectorIS7_SaIS7_EEEElS7_NS0_5__ops15_Iter_comp_iterIZN8argparse8ArgumentC4ILm1EJLm0EEEEOSt5arrayISt17basic_string_viewIcS5_EXT_EESt16integer_sequenceImJXspT0_EEEEUlRKT_RKT0_E_EEEvSP_SS_SS_T1_T2_.isra.0+0x392>
    4d34:	48 8b 44 24 40       	mov    0x40(%rsp),%rax
    4d39:	48 8d 70 01          	lea    0x1(%rax),%rsi
    4d3d:	e8 de e5 ff ff       	call   3320 <_ZdlPvm@plt>
    4d42:	48 8b 44 24 58       	mov    0x58(%rsp),%rax
    4d47:	64 48 2b 04 25 28 00 	sub    %fs:0x28,%rax
    4d4e:	00 00 
    4d50:	0f 85 b8 02 00 00    	jne    500e <_ZSt13__adjust_heapIN9__gnu_cxx17__normal_iteratorIPNSt7__cxx1112basic_stringIcSt11char_traitsIcESaIcEEESt6vectorIS7_SaIS7_EEEElS7_NS0_5__ops15_Iter_comp_iterIZN8argparse8ArgumentC4ILm1EJLm0EEEEOSt5arrayISt17basic_string_viewIcS5_EXT_EESt16integer_sequenceImJXspT0_EEEEUlRKT_RKT0_E_EEEvSP_SS_SS_T1_T2_.isra.0+0x65e>
    4d56:	48 83 c4 68          	add    $0x68,%rsp
    4d5a:	5b                   	pop    %rbx
    4d5b:	5d                   	pop    %rbp
    4d5c:	41 5c                	pop    %r12
    4d5e:	41 5d                	pop    %r13
    4d60:	41 5e                	pop    %r14
    4d62:	41 5f                	pop    %r15
    4d64:	c3                   	ret    
    4d65:	0f 1f 00             	nopl   (%rax)
    4d68:	49 89 04 24          	mov    %rax,(%r12)
    4d6c:	49 89 54 24 08       	mov    %rdx,0x8(%r12)
    4d71:	48 8b 43 10          	mov    0x10(%rbx),%rax
    4d75:	49 89 44 24 10       	mov    %rax,0x10(%r12)
    4d7a:	48 89 0b             	mov    %rcx,(%rbx)
    4d7d:	48 89 cf             	mov    %rcx,%rdi
    4d80:	e9 e2 fc ff ff       	jmp    4a67 <_ZSt13__adjust_heapIN9__gnu_cxx17__normal_iteratorIPNSt7__cxx1112basic_stringIcSt11char_traitsIcESaIcEEESt6vectorIS7_SaIS7_EEEElS7_NS0_5__ops15_Iter_comp_iterIZN8argparse8ArgumentC4ILm1EJLm0EEEEOSt5arrayISt17basic_string_viewIcS5_EXT_EESt16integer_sequenceImJXspT0_EEEEUlRKT_RKT0_E_EEEvSP_SS_SS_T1_T2_.isra.0+0xb7>
    4d85:	0f 1f 00             	nopl   (%rax)
    4d88:	0f 89 85 02 00 00    	jns    5013 <_ZSt13__adjust_heapIN9__gnu_cxx17__normal_iteratorIPNSt7__cxx1112basic_stringIcSt11char_traitsIcESaIcEEESt6vectorIS7_SaIS7_EEEElS7_NS0_5__ops15_Iter_comp_iterIZN8argparse8ArgumentC4ILm1EJLm0EEEEOSt5arrayISt17basic_string_viewIcS5_EXT_EESt16integer_sequenceImJXspT0_EEEEUlRKT_RKT0_E_EEEvSP_SS_SS_T1_T2_.isra.0+0x663>
    4d8e:	48 c1 e5 05          	shl    $0x5,%rbp
    4d92:	4c 01 fd             	add    %r15,%rbp
    4d95:	48 8d 73 10          	lea    0x10(%rbx),%rsi
    4d99:	48 8b 7d 00          	mov    0x0(%rbp),%rdi
    4d9d:	49 39 f0             	cmp    %rsi,%r8
    4da0:	0f 85 6b fe ff ff    	jne    4c11 <_ZSt13__adjust_heapIN9__gnu_cxx17__normal_iteratorIPNSt7__cxx1112basic_stringIcSt11char_traitsIcESaIcEEESt6vectorIS7_SaIS7_EEEElS7_NS0_5__ops15_Iter_comp_iterIZN8argparse8ArgumentC4ILm1EJLm0EEEEOSt5arrayISt17basic_string_viewIcS5_EXT_EESt16integer_sequenceImJXspT0_EEEEUlRKT_RKT0_E_EEEvSP_SS_SS_T1_T2_.isra.0+0x261>
    4da6:	48 83 fa 01          	cmp    $0x1,%rdx
    4daa:	74 5f                	je     4e0b <_ZSt13__adjust_heapIN9__gnu_cxx17__normal_iteratorIPNSt7__cxx1112basic_stringIcSt11char_traitsIcESaIcEEESt6vectorIS7_SaIS7_EEEElS7_NS0_5__ops15_Iter_comp_iterIZN8argparse8ArgumentC4ILm1EJLm0EEEEOSt5arrayISt17basic_string_viewIcS5_EXT_EESt16integer_sequenceImJXspT0_EEEEUlRKT_RKT0_E_EEEvSP_SS_SS_T1_T2_.isra.0+0x45b>
    4dac:	48 89 34 24          	mov    %rsi,(%rsp)
    4db0:	e8 8b e3 ff ff       	call   3140 <memcpy@plt>
    4db5:	48 8b 53 08          	mov    0x8(%rbx),%rdx
    4db9:	48 8b 7d 00          	mov    0x0(%rbp),%rdi
    4dbd:	48 8b 34 24          	mov    (%rsp),%rsi
    4dc1:	48 89 55 08          	mov    %rdx,0x8(%rbp)
    4dc5:	c6 04 17 00          	movb   $0x0,(%rdi,%rdx,1)
    4dc9:	48 89 f1             	mov    %rsi,%rcx
    4dcc:	48 8b 3b             	mov    (%rbx),%rdi
    4dcf:	e9 6d fe ff ff       	jmp    4c41 <_ZSt13__adjust_heapIN9__gnu_cxx17__normal_iteratorIPNSt7__cxx1112basic_stringIcSt11char_traitsIcESaIcEEESt6vectorIS7_SaIS7_EEEElS7_NS0_5__ops15_Iter_comp_iterIZN8argparse8ArgumentC4ILm1EJLm0EEEEOSt5arrayISt17basic_string_viewIcS5_EXT_EESt16integer_sequenceImJXspT0_EEEEUlRKT_RKT0_E_EEEvSP_SS_SS_T1_T2_.isra.0+0x291>
    4dd4:	0f 1f 40 00          	nopl   0x0(%rax)
    4dd8:	4c 89 45 00          	mov    %r8,0x0(%rbp)
    4ddc:	48 89 55 08          	mov    %rdx,0x8(%rbp)
    4de0:	48 8b 43 10          	mov    0x10(%rbx),%rax
    4de4:	48 89 45 10          	mov    %rax,0x10(%rbp)
    4de8:	48 89 33             	mov    %rsi,(%rbx)
    4deb:	48 89 f1             	mov    %rsi,%rcx
    4dee:	48 89 f7             	mov    %rsi,%rdi
    4df1:	e9 4b fe ff ff       	jmp    4c41 <_ZSt13__adjust_heapIN9__gnu_cxx17__normal_iteratorIPNSt7__cxx1112basic_stringIcSt11char_traitsIcESaIcEEESt6vectorIS7_SaIS7_EEEElS7_NS0_5__ops15_Iter_comp_iterIZN8argparse8ArgumentC4ILm1EJLm0EEEEOSt5arrayISt17basic_string_viewIcS5_EXT_EESt16integer_sequenceImJXspT0_EEEEUlRKT_RKT0_E_EEEvSP_SS_SS_T1_T2_.isra.0+0x291>
    4df6:	66 2e 0f 1f 84 00 00 	cs nopw 0x0(%rax,%rax,1)
    4dfd:	00 00 00 
    4e00:	48 85 d2             	test   %rdx,%rdx
    4e03:	74 bc                	je     4dc1 <_ZSt13__adjust_heapIN9__gnu_cxx17__normal_iteratorIPNSt7__cxx1112basic_stringIcSt11char_traitsIcESaIcEEESt6vectorIS7_SaIS7_EEEElS7_NS0_5__ops15_Iter_comp_iterIZN8argparse8ArgumentC4ILm1EJLm0EEEEOSt5arrayISt17basic_string_viewIcS5_EXT_EESt16integer_sequenceImJXspT0_EEEEUlRKT_RKT0_E_EEEvSP_SS_SS_T1_T2_.isra.0+0x411>
    4e05:	48 83 fa 01          	cmp    $0x1,%rdx
    4e09:	75 a1                	jne    4dac <_ZSt13__adjust_heapIN9__gnu_cxx17__normal_iteratorIPNSt7__cxx1112basic_stringIcSt11char_traitsIcESaIcEEESt6vectorIS7_SaIS7_EEEElS7_NS0_5__ops15_Iter_comp_iterIZN8argparse8ArgumentC4ILm1EJLm0EEEEOSt5arrayISt17basic_string_viewIcS5_EXT_EESt16integer_sequenceImJXspT0_EEEEUlRKT_RKT0_E_EEEvSP_SS_SS_T1_T2_.isra.0+0x3fc>
    4e0b:	0f b6 43 10          	movzbl 0x10(%rbx),%eax
    4e0f:	88 07                	mov    %al,(%rdi)
    4e11:	48 8b 53 08          	mov    0x8(%rbx),%rdx
    4e15:	48 8b 7d 00          	mov    0x0(%rbp),%rdi
    4e19:	eb a6                	jmp    4dc1 <_ZSt13__adjust_heapIN9__gnu_cxx17__normal_iteratorIPNSt7__cxx1112basic_stringIcSt11char_traitsIcESaIcEEESt6vectorIS7_SaIS7_EEEElS7_NS0_5__ops15_Iter_comp_iterIZN8argparse8ArgumentC4ILm1EJLm0EEEEOSt5arrayISt17basic_string_viewIcS5_EXT_EESt16integer_sequenceImJXspT0_EEEEUlRKT_RKT0_E_EEEvSP_SS_SS_T1_T2_.isra.0+0x411>
    4e1b:	0f 1f 44 00 00       	nopl   0x0(%rax,%rax,1)
    4e20:	48 c1 e5 05          	shl    $0x5,%rbp
    4e24:	49 8d 1c 2f          	lea    (%r15,%rbp,1),%rbx
    4e28:	48 8b 3b             	mov    (%rbx),%rdi
    4e2b:	4d 39 e2             	cmp    %r12,%r10
    4e2e:	0f 85 b2 fe ff ff    	jne    4ce6 <_ZSt13__adjust_heapIN9__gnu_cxx17__normal_iteratorIPNSt7__cxx1112basic_stringIcSt11char_traitsIcESaIcEEESt6vectorIS7_SaIS7_EEEElS7_NS0_5__ops15_Iter_comp_iterIZN8argparse8ArgumentC4ILm1EJLm0EEEEOSt5arrayISt17basic_string_viewIcS5_EXT_EESt16integer_sequenceImJXspT0_EEEEUlRKT_RKT0_E_EEEvSP_SS_SS_T1_T2_.isra.0+0x336>
    4e34:	48 89 53 08          	mov    %rdx,0x8(%rbx)
    4e38:	c6 04 17 00          	movb   $0x0,(%rdi,%rdx,1)
    4e3c:	48 8b 7c 24 30       	mov    0x30(%rsp),%rdi
    4e41:	e9 d8 fe ff ff       	jmp    4d1e <_ZSt13__adjust_heapIN9__gnu_cxx17__normal_iteratorIPNSt7__cxx1112basic_stringIcSt11char_traitsIcESaIcEEESt6vectorIS7_SaIS7_EEEElS7_NS0_5__ops15_Iter_comp_iterIZN8argparse8ArgumentC4ILm1EJLm0EEEEOSt5arrayISt17basic_string_viewIcS5_EXT_EESt16integer_sequenceImJXspT0_EEEEUlRKT_RKT0_E_EEEvSP_SS_SS_T1_T2_.isra.0+0x36e>
    4e46:	66 2e 0f 1f 84 00 00 	cs nopw 0x0(%rax,%rax,1)
    4e4d:	00 00 00 
    4e50:	48 89 cb             	mov    %rcx,%rbx
    4e53:	4c 89 dd             	mov    %r11,%rbp
    4e56:	e9 c1 fb ff ff       	jmp    4a1c <_ZSt13__adjust_heapIN9__gnu_cxx17__normal_iteratorIPNSt7__cxx1112basic_stringIcSt11char_traitsIcESaIcEEESt6vectorIS7_SaIS7_EEEElS7_NS0_5__ops15_Iter_comp_iterIZN8argparse8ArgumentC4ILm1EJLm0EEEEOSt5arrayISt17basic_string_viewIcS5_EXT_EESt16integer_sequenceImJXspT0_EEEEUlRKT_RKT0_E_EEEvSP_SS_SS_T1_T2_.isra.0+0x6c>
    4e5b:	0f 1f 44 00 00       	nopl   0x0(%rax,%rax,1)
    4e60:	c4 e1 f9 6e d2       	vmovq  %rdx,%xmm2
    4e65:	4c 89 13             	mov    %r10,(%rbx)
    4e68:	c4 e3 e9 22 c0 01    	vpinsrq $0x1,%rax,%xmm2,%xmm0
    4e6e:	c5 fa 7f 43 08       	vmovdqu %xmm0,0x8(%rbx)
    4e73:	4c 89 64 24 30       	mov    %r12,0x30(%rsp)
    4e78:	4c 8d 64 24 40       	lea    0x40(%rsp),%r12
    4e7d:	4c 89 e7             	mov    %r12,%rdi
    4e80:	e9 99 fe ff ff       	jmp    4d1e <_ZSt13__adjust_heapIN9__gnu_cxx17__normal_iteratorIPNSt7__cxx1112basic_stringIcSt11char_traitsIcESaIcEEESt6vectorIS7_SaIS7_EEEElS7_NS0_5__ops15_Iter_comp_iterIZN8argparse8ArgumentC4ILm1EJLm0EEEEOSt5arrayISt17basic_string_viewIcS5_EXT_EESt16integer_sequenceImJXspT0_EEEEUlRKT_RKT0_E_EEEvSP_SS_SS_T1_T2_.isra.0+0x36e>
    4e85:	0f 1f 00             	nopl   (%rax)
    4e88:	4c 8b 54 24 30       	mov    0x30(%rsp),%r10
    4e8d:	48 8b 3b             	mov    (%rbx),%rdi
    4e90:	4d 39 e2             	cmp    %r12,%r10
    4e93:	0f 85 89 01 00 00    	jne    5022 <_ZSt13__adjust_heapIN9__gnu_cxx17__normal_iteratorIPNSt7__cxx1112basic_stringIcSt11char_traitsIcESaIcEEESt6vectorIS7_SaIS7_EEEElS7_NS0_5__ops15_Iter_comp_iterIZN8argparse8ArgumentC4ILm1EJLm0EEEEOSt5arrayISt17basic_string_viewIcS5_EXT_EESt16integer_sequenceImJXspT0_EEEEUlRKT_RKT0_E_EEEvSP_SS_SS_T1_T2_.isra.0+0x672>
    4e99:	48 85 f6             	test   %rsi,%rsi
    4e9c:	0f 85 c1 00 00 00    	jne    4f63 <_ZSt13__adjust_heapIN9__gnu_cxx17__normal_iteratorIPNSt7__cxx1112basic_stringIcSt11char_traitsIcESaIcEEESt6vectorIS7_SaIS7_EEEElS7_NS0_5__ops15_Iter_comp_iterIZN8argparse8ArgumentC4ILm1EJLm0EEEEOSt5arrayISt17basic_string_viewIcS5_EXT_EESt16integer_sequenceImJXspT0_EEEEUlRKT_RKT0_E_EEEvSP_SS_SS_T1_T2_.isra.0+0x5b3>
    4ea2:	31 d2                	xor    %edx,%edx
    4ea4:	eb 8e                	jmp    4e34 <_ZSt13__adjust_heapIN9__gnu_cxx17__normal_iteratorIPNSt7__cxx1112basic_stringIcSt11char_traitsIcESaIcEEESt6vectorIS7_SaIS7_EEEElS7_NS0_5__ops15_Iter_comp_iterIZN8argparse8ArgumentC4ILm1EJLm0EEEEOSt5arrayISt17basic_string_viewIcS5_EXT_EESt16integer_sequenceImJXspT0_EEEEUlRKT_RKT0_E_EEEvSP_SS_SS_T1_T2_.isra.0+0x484>
    4ea6:	66 2e 0f 1f 84 00 00 	cs nopw 0x0(%rax,%rax,1)
    4ead:	00 00 00 
    4eb0:	0f b6 43 10          	movzbl 0x10(%rbx),%eax
    4eb4:	88 07                	mov    %al,(%rdi)
    4eb6:	48 8b 53 08          	mov    0x8(%rbx),%rdx
    4eba:	49 8b 3c 24          	mov    (%r12),%rdi
    4ebe:	e9 80 fc ff ff       	jmp    4b43 <_ZSt13__adjust_heapIN9__gnu_cxx17__normal_iteratorIPNSt7__cxx1112basic_stringIcSt11char_traitsIcESaIcEEESt6vectorIS7_SaIS7_EEEElS7_NS0_5__ops15_Iter_comp_iterIZN8argparse8ArgumentC4ILm1EJLm0EEEEOSt5arrayISt17basic_string_viewIcS5_EXT_EESt16integer_sequenceImJXspT0_EEEEUlRKT_RKT0_E_EEEvSP_SS_SS_T1_T2_.isra.0+0x193>
    4ec3:	0f 1f 44 00 00       	nopl   0x0(%rax,%rax,1)
    4ec8:	48 c1 e5 05          	shl    $0x5,%rbp
    4ecc:	4c 8b 54 24 30       	mov    0x30(%rsp),%r10
    4ed1:	49 8d 1c 2f          	lea    (%r15,%rbp,1),%rbx
    4ed5:	eb b6                	jmp    4e8d <_ZSt13__adjust_heapIN9__gnu_cxx17__normal_iteratorIPNSt7__cxx1112basic_stringIcSt11char_traitsIcESaIcEEESt6vectorIS7_SaIS7_EEEElS7_NS0_5__ops15_Iter_comp_iterIZN8argparse8ArgumentC4ILm1EJLm0EEEEOSt5arrayISt17basic_string_viewIcS5_EXT_EESt16integer_sequenceImJXspT0_EEEEUlRKT_RKT0_E_EEEvSP_SS_SS_T1_T2_.isra.0+0x4dd>
    4ed7:	66 0f 1f 84 00 00 00 	nopw   0x0(%rax,%rax,1)
    4ede:	00 00 
    4ee0:	c4 c1 7a 6f 59 10    	vmovdqu 0x10(%r9),%xmm3
    4ee6:	4d 89 e2             	mov    %r12,%r10
    4ee9:	c5 f9 7f 5c 24 40    	vmovdqa %xmm3,0x40(%rsp)
    4eef:	e9 bd fc ff ff       	jmp    4bb1 <_ZSt13__adjust_heapIN9__gnu_cxx17__normal_iteratorIPNSt7__cxx1112basic_stringIcSt11char_traitsIcESaIcEEESt6vectorIS7_SaIS7_EEEElS7_NS0_5__ops15_Iter_comp_iterIZN8argparse8ArgumentC4ILm1EJLm0EEEEOSt5arrayISt17basic_string_viewIcS5_EXT_EESt16integer_sequenceImJXspT0_EEEEUlRKT_RKT0_E_EEEvSP_SS_SS_T1_T2_.isra.0+0x201>
    4ef4:	0f 1f 40 00          	nopl   0x0(%rax)
    4ef8:	48 8d 6c 2d 01       	lea    0x1(%rbp,%rbp,1),%rbp
    4efd:	49 89 ec             	mov    %rbp,%r12
    4f00:	49 c1 e4 05          	shl    $0x5,%r12
    4f04:	4d 01 fc             	add    %r15,%r12
    4f07:	49 8b 04 24          	mov    (%r12),%rax
    4f0b:	4d 8d 74 24 10       	lea    0x10(%r12),%r14
    4f10:	48 8b 3b             	mov    (%rbx),%rdi
    4f13:	49 8b 54 24 08       	mov    0x8(%r12),%rdx
    4f18:	4c 39 f0             	cmp    %r14,%rax
    4f1b:	0f 84 a7 00 00 00    	je     4fc8 <_ZSt13__adjust_heapIN9__gnu_cxx17__normal_iteratorIPNSt7__cxx1112basic_stringIcSt11char_traitsIcESaIcEEESt6vectorIS7_SaIS7_EEEElS7_NS0_5__ops15_Iter_comp_iterIZN8argparse8ArgumentC4ILm1EJLm0EEEEOSt5arrayISt17basic_string_viewIcS5_EXT_EESt16integer_sequenceImJXspT0_EEEEUlRKT_RKT0_E_EEEvSP_SS_SS_T1_T2_.isra.0+0x618>
    4f21:	48 39 cf             	cmp    %rcx,%rdi
    4f24:	0f 84 85 00 00 00    	je     4faf <_ZSt13__adjust_heapIN9__gnu_cxx17__normal_iteratorIPNSt7__cxx1112basic_stringIcSt11char_traitsIcESaIcEEESt6vectorIS7_SaIS7_EEEElS7_NS0_5__ops15_Iter_comp_iterIZN8argparse8ArgumentC4ILm1EJLm0EEEEOSt5arrayISt17basic_string_viewIcS5_EXT_EESt16integer_sequenceImJXspT0_EEEEUlRKT_RKT0_E_EEEvSP_SS_SS_T1_T2_.isra.0+0x5ff>
    4f2a:	48 89 03             	mov    %rax,(%rbx)
    4f2d:	48 89 53 08          	mov    %rdx,0x8(%rbx)
    4f31:	48 8b 4b 10          	mov    0x10(%rbx),%rcx
    4f35:	49 8b 44 24 10       	mov    0x10(%r12),%rax
    4f3a:	48 89 43 10          	mov    %rax,0x10(%rbx)
    4f3e:	48 85 ff             	test   %rdi,%rdi
    4f41:	74 7c                	je     4fbf <_ZSt13__adjust_heapIN9__gnu_cxx17__normal_iteratorIPNSt7__cxx1112basic_stringIcSt11char_traitsIcESaIcEEESt6vectorIS7_SaIS7_EEEElS7_NS0_5__ops15_Iter_comp_iterIZN8argparse8ArgumentC4ILm1EJLm0EEEEOSt5arrayISt17basic_string_viewIcS5_EXT_EESt16integer_sequenceImJXspT0_EEEEUlRKT_RKT0_E_EEEvSP_SS_SS_T1_T2_.isra.0+0x60f>
    4f43:	49 89 3c 24          	mov    %rdi,(%r12)
    4f47:	49 89 4c 24 10       	mov    %rcx,0x10(%r12)
    4f4c:	49 c7 44 24 08 00 00 	movq   $0x0,0x8(%r12)
    4f53:	00 00 
    4f55:	4c 89 f1             	mov    %r14,%rcx
    4f58:	c6 07 00             	movb   $0x0,(%rdi)
    4f5b:	4c 89 e3             	mov    %r12,%rbx
    4f5e:	e9 26 fc ff ff       	jmp    4b89 <_ZSt13__adjust_heapIN9__gnu_cxx17__normal_iteratorIPNSt7__cxx1112basic_stringIcSt11char_traitsIcESaIcEEESt6vectorIS7_SaIS7_EEEElS7_NS0_5__ops15_Iter_comp_iterIZN8argparse8ArgumentC4ILm1EJLm0EEEEOSt5arrayISt17basic_string_viewIcS5_EXT_EESt16integer_sequenceImJXspT0_EEEEUlRKT_RKT0_E_EEEvSP_SS_SS_T1_T2_.isra.0+0x1d9>
    4f63:	48 89 f2             	mov    %rsi,%rdx
    4f66:	66 2e 0f 1f 84 00 00 	cs nopw 0x0(%rax,%rax,1)
    4f6d:	00 00 00 
    4f70:	48 83 fa 01          	cmp    $0x1,%rdx
    4f74:	74 25                	je     4f9b <_ZSt13__adjust_heapIN9__gnu_cxx17__normal_iteratorIPNSt7__cxx1112basic_stringIcSt11char_traitsIcESaIcEEESt6vectorIS7_SaIS7_EEEElS7_NS0_5__ops15_Iter_comp_iterIZN8argparse8ArgumentC4ILm1EJLm0EEEEOSt5arrayISt17basic_string_viewIcS5_EXT_EESt16integer_sequenceImJXspT0_EEEEUlRKT_RKT0_E_EEEvSP_SS_SS_T1_T2_.isra.0+0x5eb>
    4f76:	4c 89 e6             	mov    %r12,%rsi
    4f79:	e8 c2 e1 ff ff       	call   3140 <memcpy@plt>
    4f7e:	48 8b 54 24 38       	mov    0x38(%rsp),%rdx
    4f83:	48 8b 3b             	mov    (%rbx),%rdi
    4f86:	e9 a9 fe ff ff       	jmp    4e34 <_ZSt13__adjust_heapIN9__gnu_cxx17__normal_iteratorIPNSt7__cxx1112basic_stringIcSt11char_traitsIcESaIcEEESt6vectorIS7_SaIS7_EEEElS7_NS0_5__ops15_Iter_comp_iterIZN8argparse8ArgumentC4ILm1EJLm0EEEEOSt5arrayISt17basic_string_viewIcS5_EXT_EESt16integer_sequenceImJXspT0_EEEEUlRKT_RKT0_E_EEEvSP_SS_SS_T1_T2_.isra.0+0x484>
    4f8b:	0f 1f 44 00 00       	nopl   0x0(%rax,%rax,1)
    4f90:	4c 89 f1             	mov    %r14,%rcx
    4f93:	48 89 f5             	mov    %rsi,%rbp
    4f96:	e9 c8 fb ff ff       	jmp    4b63 <_ZSt13__adjust_heapIN9__gnu_cxx17__normal_iteratorIPNSt7__cxx1112basic_stringIcSt11char_traitsIcESaIcEEESt6vectorIS7_SaIS7_EEEElS7_NS0_5__ops15_Iter_comp_iterIZN8argparse8ArgumentC4ILm1EJLm0EEEEOSt5arrayISt17basic_string_viewIcS5_EXT_EESt16integer_sequenceImJXspT0_EEEEUlRKT_RKT0_E_EEEvSP_SS_SS_T1_T2_.isra.0+0x1b3>
    4f9b:	0f b6 44 24 40       	movzbl 0x40(%rsp),%eax
    4fa0:	88 07                	mov    %al,(%rdi)
    4fa2:	48 8b 54 24 38       	mov    0x38(%rsp),%rdx
    4fa7:	48 8b 3b             	mov    (%rbx),%rdi
    4faa:	e9 85 fe ff ff       	jmp    4e34 <_ZSt13__adjust_heapIN9__gnu_cxx17__normal_iteratorIPNSt7__cxx1112basic_stringIcSt11char_traitsIcESaIcEEESt6vectorIS7_SaIS7_EEEElS7_NS0_5__ops15_Iter_comp_iterIZN8argparse8ArgumentC4ILm1EJLm0EEEEOSt5arrayISt17basic_string_viewIcS5_EXT_EESt16integer_sequenceImJXspT0_EEEEUlRKT_RKT0_E_EEEvSP_SS_SS_T1_T2_.isra.0+0x484>
    4faf:	48 89 03             	mov    %rax,(%rbx)
    4fb2:	48 89 53 08          	mov    %rdx,0x8(%rbx)
    4fb6:	49 8b 44 24 10       	mov    0x10(%r12),%rax
    4fbb:	48 89 43 10          	mov    %rax,0x10(%rbx)
    4fbf:	4d 89 34 24          	mov    %r14,(%r12)
    4fc3:	4c 89 f7             	mov    %r14,%rdi
    4fc6:	eb 84                	jmp    4f4c <_ZSt13__adjust_heapIN9__gnu_cxx17__normal_iteratorIPNSt7__cxx1112basic_stringIcSt11char_traitsIcESaIcEEESt6vectorIS7_SaIS7_EEEElS7_NS0_5__ops15_Iter_comp_iterIZN8argparse8ArgumentC4ILm1EJLm0EEEEOSt5arrayISt17basic_string_viewIcS5_EXT_EESt16integer_sequenceImJXspT0_EEEEUlRKT_RKT0_E_EEEvSP_SS_SS_T1_T2_.isra.0+0x59c>
    4fc8:	48 85 d2             	test   %rdx,%rdx
    4fcb:	74 1e                	je     4feb <_ZSt13__adjust_heapIN9__gnu_cxx17__normal_iteratorIPNSt7__cxx1112basic_stringIcSt11char_traitsIcESaIcEEESt6vectorIS7_SaIS7_EEEElS7_NS0_5__ops15_Iter_comp_iterIZN8argparse8ArgumentC4ILm1EJLm0EEEEOSt5arrayISt17basic_string_viewIcS5_EXT_EESt16integer_sequenceImJXspT0_EEEEUlRKT_RKT0_E_EEEvSP_SS_SS_T1_T2_.isra.0+0x63b>
    4fcd:	48 83 fa 01          	cmp    $0x1,%rdx
    4fd1:	74 29                	je     4ffc <_ZSt13__adjust_heapIN9__gnu_cxx17__normal_iteratorIPNSt7__cxx1112basic_stringIcSt11char_traitsIcESaIcEEESt6vectorIS7_SaIS7_EEEElS7_NS0_5__ops15_Iter_comp_iterIZN8argparse8ArgumentC4ILm1EJLm0EEEEOSt5arrayISt17basic_string_viewIcS5_EXT_EESt16integer_sequenceImJXspT0_EEEEUlRKT_RKT0_E_EEEvSP_SS_SS_T1_T2_.isra.0+0x64c>
    4fd3:	4c 89 f6             	mov    %r14,%rsi
    4fd6:	4c 89 0c 24          	mov    %r9,(%rsp)
    4fda:	e8 61 e1 ff ff       	call   3140 <memcpy@plt>
    4fdf:	49 8b 54 24 08       	mov    0x8(%r12),%rdx
    4fe4:	48 8b 3b             	mov    (%rbx),%rdi
    4fe7:	4c 8b 0c 24          	mov    (%rsp),%r9
    4feb:	48 89 53 08          	mov    %rdx,0x8(%rbx)
    4fef:	c6 04 17 00          	movb   $0x0,(%rdi,%rdx,1)
    4ff3:	49 8b 3c 24          	mov    (%r12),%rdi
    4ff7:	e9 50 ff ff ff       	jmp    4f4c <_ZSt13__adjust_heapIN9__gnu_cxx17__normal_iteratorIPNSt7__cxx1112basic_stringIcSt11char_traitsIcESaIcEEESt6vectorIS7_SaIS7_EEEElS7_NS0_5__ops15_Iter_comp_iterIZN8argparse8ArgumentC4ILm1EJLm0EEEEOSt5arrayISt17basic_string_viewIcS5_EXT_EESt16integer_sequenceImJXspT0_EEEEUlRKT_RKT0_E_EEEvSP_SS_SS_T1_T2_.isra.0+0x59c>
    4ffc:	41 0f b6 44 24 10    	movzbl 0x10(%r12),%eax
    5002:	88 07                	mov    %al,(%rdi)
    5004:	49 8b 54 24 08       	mov    0x8(%r12),%rdx
    5009:	48 8b 3b             	mov    (%rbx),%rdi
    500c:	eb dd                	jmp    4feb <_ZSt13__adjust_heapIN9__gnu_cxx17__normal_iteratorIPNSt7__cxx1112basic_stringIcSt11char_traitsIcESaIcEEESt6vectorIS7_SaIS7_EEEElS7_NS0_5__ops15_Iter_comp_iterIZN8argparse8ArgumentC4ILm1EJLm0EEEEOSt5arrayISt17basic_string_viewIcS5_EXT_EESt16integer_sequenceImJXspT0_EEEEUlRKT_RKT0_E_EEEvSP_SS_SS_T1_T2_.isra.0+0x63b>
    500e:	e8 3d e1 ff ff       	call   3150 <__stack_chk_fail@plt>
    5013:	48 89 eb             	mov    %rbp,%rbx
    5016:	48 c1 e3 05          	shl    $0x5,%rbx
    501a:	4c 01 fb             	add    %r15,%rbx
    501d:	e9 b8 fc ff ff       	jmp    4cda <_ZSt13__adjust_heapIN9__gnu_cxx17__normal_iteratorIPNSt7__cxx1112basic_stringIcSt11char_traitsIcESaIcEEESt6vectorIS7_SaIS7_EEEElS7_NS0_5__ops15_Iter_comp_iterIZN8argparse8ArgumentC4ILm1EJLm0EEEEOSt5arrayISt17basic_string_viewIcS5_EXT_EESt16integer_sequenceImJXspT0_EEEEUlRKT_RKT0_E_EEEvSP_SS_SS_T1_T2_.isra.0+0x32a>
    5022:	48 89 f2             	mov    %rsi,%rdx
    5025:	e9 bc fc ff ff       	jmp    4ce6 <_ZSt13__adjust_heapIN9__gnu_cxx17__normal_iteratorIPNSt7__cxx1112basic_stringIcSt11char_traitsIcESaIcEEESt6vectorIS7_SaIS7_EEEElS7_NS0_5__ops15_Iter_comp_iterIZN8argparse8ArgumentC4ILm1EJLm0EEEEOSt5arrayISt17basic_string_viewIcS5_EXT_EESt16integer_sequenceImJXspT0_EEEEUlRKT_RKT0_E_EEEvSP_SS_SS_T1_T2_.isra.0+0x336>
    502a:	66 0f 1f 44 00 00    	nopw   0x0(%rax,%rax,1)

0000000000005030 <_ZSt13__adjust_heapIN9__gnu_cxx17__normal_iteratorIPNSt7__cxx1112basic_stringIcSt11char_traitsIcESaIcEEESt6vectorIS7_SaIS7_EEEElS7_NS0_5__ops15_Iter_comp_iterIZN8argparse8ArgumentC4ILm2EJLm0ELm1EEEEOSt5arrayISt17basic_string_viewIcS5_EXT_EESt16integer_sequenceImJXspT0_EEEEUlRKT_RKT0_E_EEEvSP_SS_SS_T1_T2_.isra.0>:
    5030:	41 57                	push   %r15
    5032:	49 89 c9             	mov    %rcx,%r9
    5035:	49 89 ff             	mov    %rdi,%r15
    5038:	41 56                	push   %r14
    503a:	41 55                	push   %r13
    503c:	49 89 f5             	mov    %rsi,%r13
    503f:	41 54                	push   %r12
    5041:	55                   	push   %rbp
    5042:	53                   	push   %rbx
    5043:	48 89 f3             	mov    %rsi,%rbx
    5046:	48 c1 e3 05          	shl    $0x5,%rbx
    504a:	48 83 ec 68          	sub    $0x68,%rsp
    504e:	48 89 54 24 28       	mov    %rdx,0x28(%rsp)
    5053:	48 01 fb             	add    %rdi,%rbx
    5056:	4c 8d 73 10          	lea    0x10(%rbx),%r14
    505a:	64 48 8b 04 25 28 00 	mov    %fs:0x28,%rax
    5061:	00 00 
    5063:	48 89 44 24 58       	mov    %rax,0x58(%rsp)
    5068:	31 c0                	xor    %eax,%eax
    506a:	48 8d 42 ff          	lea    -0x1(%rdx),%rax
    506e:	49 89 c0             	mov    %rax,%r8
    5071:	49 c1 e8 3f          	shr    $0x3f,%r8
    5075:	49 01 c0             	add    %rax,%r8
    5078:	49 d1 f8             	sar    %r8
    507b:	4c 39 c6             	cmp    %r8,%rsi
    507e:	0f 8d 8c 05 00 00    	jge    5610 <_ZSt13__adjust_heapIN9__gnu_cxx17__normal_iteratorIPNSt7__cxx1112basic_stringIcSt11char_traitsIcESaIcEEESt6vectorIS7_SaIS7_EEEElS7_NS0_5__ops15_Iter_comp_iterIZN8argparse8ArgumentC4ILm2EJLm0ELm1EEEEOSt5arrayISt17basic_string_viewIcS5_EXT_EESt16integer_sequenceImJXspT0_EEEEUlRKT_RKT0_E_EEEvSP_SS_SS_T1_T2_.isra.0+0x5e0>
    5084:	49 89 f4             	mov    %rsi,%r12
    5087:	eb 78                	jmp    5101 <_ZSt13__adjust_heapIN9__gnu_cxx17__normal_iteratorIPNSt7__cxx1112basic_stringIcSt11char_traitsIcESaIcEEESt6vectorIS7_SaIS7_EEEElS7_NS0_5__ops15_Iter_comp_iterIZN8argparse8ArgumentC4ILm2EJLm0ELm1EEEEOSt5arrayISt17basic_string_viewIcS5_EXT_EESt16integer_sequenceImJXspT0_EEEEUlRKT_RKT0_E_EEEvSP_SS_SS_T1_T2_.isra.0+0xd1>
    5089:	0f 1f 80 00 00 00 00 	nopl   0x0(%rax)
    5090:	48 0f 43 d0          	cmovae %rax,%rdx
    5094:	48 0f 43 d9          	cmovae %rcx,%rbx
    5098:	49 0f 43 eb          	cmovae %r11,%rbp
    509c:	49 c1 e4 05          	shl    $0x5,%r12
    50a0:	48 8b 03             	mov    (%rbx),%rax
    50a3:	4d 01 fc             	add    %r15,%r12
    50a6:	48 8d 4b 10          	lea    0x10(%rbx),%rcx
    50aa:	49 8b 3c 24          	mov    (%r12),%rdi
    50ae:	48 39 c8             	cmp    %rcx,%rax
    50b1:	0f 84 d1 00 00 00    	je     5188 <_ZSt13__adjust_heapIN9__gnu_cxx17__normal_iteratorIPNSt7__cxx1112basic_stringIcSt11char_traitsIcESaIcEEESt6vectorIS7_SaIS7_EEEElS7_NS0_5__ops15_Iter_comp_iterIZN8argparse8ArgumentC4ILm2EJLm0ELm1EEEEOSt5arrayISt17basic_string_viewIcS5_EXT_EESt16integer_sequenceImJXspT0_EEEEUlRKT_RKT0_E_EEEvSP_SS_SS_T1_T2_.isra.0+0x158>
    50b7:	4c 39 f7             	cmp    %r14,%rdi
    50ba:	0f 84 28 03 00 00    	je     53e8 <_ZSt13__adjust_heapIN9__gnu_cxx17__normal_iteratorIPNSt7__cxx1112basic_stringIcSt11char_traitsIcESaIcEEESt6vectorIS7_SaIS7_EEEElS7_NS0_5__ops15_Iter_comp_iterIZN8argparse8ArgumentC4ILm2EJLm0ELm1EEEEOSt5arrayISt17basic_string_viewIcS5_EXT_EESt16integer_sequenceImJXspT0_EEEEUlRKT_RKT0_E_EEEvSP_SS_SS_T1_T2_.isra.0+0x3b8>
    50c0:	49 89 04 24          	mov    %rax,(%r12)
    50c4:	49 89 54 24 08       	mov    %rdx,0x8(%r12)
    50c9:	49 8b 74 24 10       	mov    0x10(%r12),%rsi
    50ce:	48 8b 43 10          	mov    0x10(%rbx),%rax
    50d2:	49 89 44 24 10       	mov    %rax,0x10(%r12)
    50d7:	48 85 ff             	test   %rdi,%rdi
    50da:	0f 84 1a 03 00 00    	je     53fa <_ZSt13__adjust_heapIN9__gnu_cxx17__normal_iteratorIPNSt7__cxx1112basic_stringIcSt11char_traitsIcESaIcEEESt6vectorIS7_SaIS7_EEEElS7_NS0_5__ops15_Iter_comp_iterIZN8argparse8ArgumentC4ILm2EJLm0ELm1EEEEOSt5arrayISt17basic_string_viewIcS5_EXT_EESt16integer_sequenceImJXspT0_EEEEUlRKT_RKT0_E_EEEvSP_SS_SS_T1_T2_.isra.0+0x3ca>
    50e0:	48 89 3b             	mov    %rdi,(%rbx)
    50e3:	48 89 73 10          	mov    %rsi,0x10(%rbx)
    50e7:	48 c7 43 08 00 00 00 	movq   $0x0,0x8(%rbx)
    50ee:	00 
    50ef:	c6 07 00             	movb   $0x0,(%rdi)
    50f2:	4c 39 c5             	cmp    %r8,%rbp
    50f5:	0f 8d e8 00 00 00    	jge    51e3 <_ZSt13__adjust_heapIN9__gnu_cxx17__normal_iteratorIPNSt7__cxx1112basic_stringIcSt11char_traitsIcESaIcEEESt6vectorIS7_SaIS7_EEEElS7_NS0_5__ops15_Iter_comp_iterIZN8argparse8ArgumentC4ILm2EJLm0ELm1EEEEOSt5arrayISt17basic_string_viewIcS5_EXT_EESt16integer_sequenceImJXspT0_EEEEUlRKT_RKT0_E_EEEvSP_SS_SS_T1_T2_.isra.0+0x1b3>
    50fb:	49 89 ce             	mov    %rcx,%r14
    50fe:	49 89 ec             	mov    %rbp,%r12
    5101:	49 8d 4c 24 01       	lea    0x1(%r12),%rcx
    5106:	4c 8d 1c 09          	lea    (%rcx,%rcx,1),%r11
    510a:	49 8d 6b ff          	lea    -0x1(%r11),%rbp
    510e:	48 89 eb             	mov    %rbp,%rbx
    5111:	48 c1 e3 05          	shl    $0x5,%rbx
    5115:	48 c1 e1 06          	shl    $0x6,%rcx
    5119:	4c 01 fb             	add    %r15,%rbx
    511c:	4c 01 f9             	add    %r15,%rcx
    511f:	48 8b 41 08          	mov    0x8(%rcx),%rax
    5123:	48 8b 53 08          	mov    0x8(%rbx),%rdx
    5127:	48 39 d0             	cmp    %rdx,%rax
    512a:	0f 85 60 ff ff ff    	jne    5090 <_ZSt13__adjust_heapIN9__gnu_cxx17__normal_iteratorIPNSt7__cxx1112basic_stringIcSt11char_traitsIcESaIcEEESt6vectorIS7_SaIS7_EEEElS7_NS0_5__ops15_Iter_comp_iterIZN8argparse8ArgumentC4ILm2EJLm0ELm1EEEEOSt5arrayISt17basic_string_viewIcS5_EXT_EESt16integer_sequenceImJXspT0_EEEEUlRKT_RKT0_E_EEEvSP_SS_SS_T1_T2_.isra.0+0x60>
    5130:	48 85 d2             	test   %rdx,%rdx
    5133:	0f 84 97 03 00 00    	je     54d0 <_ZSt13__adjust_heapIN9__gnu_cxx17__normal_iteratorIPNSt7__cxx1112basic_stringIcSt11char_traitsIcESaIcEEESt6vectorIS7_SaIS7_EEEElS7_NS0_5__ops15_Iter_comp_iterIZN8argparse8ArgumentC4ILm2EJLm0ELm1EEEEOSt5arrayISt17basic_string_viewIcS5_EXT_EESt16integer_sequenceImJXspT0_EEEEUlRKT_RKT0_E_EEEvSP_SS_SS_T1_T2_.isra.0+0x4a0>
    5139:	48 8b 33             	mov    (%rbx),%rsi
    513c:	48 8b 39             	mov    (%rcx),%rdi
    513f:	4c 89 44 24 20       	mov    %r8,0x20(%rsp)
    5144:	4c 89 4c 24 18       	mov    %r9,0x18(%rsp)
    5149:	4c 89 5c 24 10       	mov    %r11,0x10(%rsp)
    514e:	48 89 54 24 08       	mov    %rdx,0x8(%rsp)
    5153:	48 89 0c 24          	mov    %rcx,(%rsp)
    5157:	e8 14 e1 ff ff       	call   3270 <memcmp@plt>
    515c:	48 8b 0c 24          	mov    (%rsp),%rcx
    5160:	4c 8b 5c 24 10       	mov    0x10(%rsp),%r11
    5165:	85 c0                	test   %eax,%eax
    5167:	48 0f 49 d9          	cmovns %rcx,%rbx
    516b:	49 0f 49 eb          	cmovns %r11,%rbp
    516f:	48 8b 54 24 08       	mov    0x8(%rsp),%rdx
    5174:	4c 8b 4c 24 18       	mov    0x18(%rsp),%r9
    5179:	4c 8b 44 24 20       	mov    0x20(%rsp),%r8
    517e:	e9 19 ff ff ff       	jmp    509c <_ZSt13__adjust_heapIN9__gnu_cxx17__normal_iteratorIPNSt7__cxx1112basic_stringIcSt11char_traitsIcESaIcEEESt6vectorIS7_SaIS7_EEEElS7_NS0_5__ops15_Iter_comp_iterIZN8argparse8ArgumentC4ILm2EJLm0ELm1EEEEOSt5arrayISt17basic_string_viewIcS5_EXT_EESt16integer_sequenceImJXspT0_EEEEUlRKT_RKT0_E_EEEvSP_SS_SS_T1_T2_.isra.0+0x6c>
    5183:	0f 1f 44 00 00       	nopl   0x0(%rax,%rax,1)
    5188:	48 85 d2             	test   %rdx,%rdx
    518b:	74 36                	je     51c3 <_ZSt13__adjust_heapIN9__gnu_cxx17__normal_iteratorIPNSt7__cxx1112basic_stringIcSt11char_traitsIcESaIcEEESt6vectorIS7_SaIS7_EEEElS7_NS0_5__ops15_Iter_comp_iterIZN8argparse8ArgumentC4ILm2EJLm0ELm1EEEEOSt5arrayISt17basic_string_viewIcS5_EXT_EESt16integer_sequenceImJXspT0_EEEEUlRKT_RKT0_E_EEEvSP_SS_SS_T1_T2_.isra.0+0x193>
    518d:	48 83 fa 01          	cmp    $0x1,%rdx
    5191:	0f 84 99 03 00 00    	je     5530 <_ZSt13__adjust_heapIN9__gnu_cxx17__normal_iteratorIPNSt7__cxx1112basic_stringIcSt11char_traitsIcESaIcEEESt6vectorIS7_SaIS7_EEEElS7_NS0_5__ops15_Iter_comp_iterIZN8argparse8ArgumentC4ILm2EJLm0ELm1EEEEOSt5arrayISt17basic_string_viewIcS5_EXT_EESt16integer_sequenceImJXspT0_EEEEUlRKT_RKT0_E_EEEvSP_SS_SS_T1_T2_.isra.0+0x500>
    5197:	48 89 ce             	mov    %rcx,%rsi
    519a:	4c 89 44 24 10       	mov    %r8,0x10(%rsp)
    519f:	4c 89 4c 24 08       	mov    %r9,0x8(%rsp)
    51a4:	48 89 0c 24          	mov    %rcx,(%rsp)
    51a8:	e8 93 df ff ff       	call   3140 <memcpy@plt>
    51ad:	48 8b 53 08          	mov    0x8(%rbx),%rdx
    51b1:	49 8b 3c 24          	mov    (%r12),%rdi
    51b5:	4c 8b 44 24 10       	mov    0x10(%rsp),%r8
    51ba:	4c 8b 4c 24 08       	mov    0x8(%rsp),%r9
    51bf:	48 8b 0c 24          	mov    (%rsp),%rcx
    51c3:	49 89 54 24 08       	mov    %rdx,0x8(%r12)
    51c8:	c6 04 17 00          	movb   $0x0,(%rdi,%rdx,1)
    51cc:	48 c7 43 08 00 00 00 	movq   $0x0,0x8(%rbx)
    51d3:	00 
    51d4:	48 8b 3b             	mov    (%rbx),%rdi
    51d7:	c6 07 00             	movb   $0x0,(%rdi)
    51da:	4c 39 c5             	cmp    %r8,%rbp
    51dd:	0f 8c 18 ff ff ff    	jl     50fb <_ZSt13__adjust_heapIN9__gnu_cxx17__normal_iteratorIPNSt7__cxx1112basic_stringIcSt11char_traitsIcESaIcEEESt6vectorIS7_SaIS7_EEEElS7_NS0_5__ops15_Iter_comp_iterIZN8argparse8ArgumentC4ILm2EJLm0ELm1EEEEOSt5arrayISt17basic_string_viewIcS5_EXT_EESt16integer_sequenceImJXspT0_EEEEUlRKT_RKT0_E_EEEvSP_SS_SS_T1_T2_.isra.0+0xcb>
    51e3:	48 8b 44 24 28       	mov    0x28(%rsp),%rax
    51e8:	a8 01                	test   $0x1,%al
    51ea:	75 1d                	jne    5209 <_ZSt13__adjust_heapIN9__gnu_cxx17__normal_iteratorIPNSt7__cxx1112basic_stringIcSt11char_traitsIcESaIcEEESt6vectorIS7_SaIS7_EEEElS7_NS0_5__ops15_Iter_comp_iterIZN8argparse8ArgumentC4ILm2EJLm0ELm1EEEEOSt5arrayISt17basic_string_viewIcS5_EXT_EESt16integer_sequenceImJXspT0_EEEEUlRKT_RKT0_E_EEEvSP_SS_SS_T1_T2_.isra.0+0x1d9>
    51ec:	49 89 c6             	mov    %rax,%r14
    51ef:	49 83 ee 02          	sub    $0x2,%r14
    51f3:	4c 89 f0             	mov    %r14,%rax
    51f6:	48 c1 e8 3f          	shr    $0x3f,%rax
    51fa:	49 01 c6             	add    %rax,%r14
    51fd:	49 d1 fe             	sar    %r14
    5200:	49 39 ee             	cmp    %rbp,%r14
    5203:	0f 84 6f 03 00 00    	je     5578 <_ZSt13__adjust_heapIN9__gnu_cxx17__normal_iteratorIPNSt7__cxx1112basic_stringIcSt11char_traitsIcESaIcEEESt6vectorIS7_SaIS7_EEEElS7_NS0_5__ops15_Iter_comp_iterIZN8argparse8ArgumentC4ILm2EJLm0ELm1EEEEOSt5arrayISt17basic_string_viewIcS5_EXT_EESt16integer_sequenceImJXspT0_EEEEUlRKT_RKT0_E_EEEvSP_SS_SS_T1_T2_.isra.0+0x548>
    5209:	4d 8b 11             	mov    (%r9),%r10
    520c:	4c 8d 64 24 40       	lea    0x40(%rsp),%r12
    5211:	49 8d 41 10          	lea    0x10(%r9),%rax
    5215:	4c 89 64 24 30       	mov    %r12,0x30(%rsp)
    521a:	49 39 c2             	cmp    %rax,%r10
    521d:	0f 84 3d 03 00 00    	je     5560 <_ZSt13__adjust_heapIN9__gnu_cxx17__normal_iteratorIPNSt7__cxx1112basic_stringIcSt11char_traitsIcESaIcEEESt6vectorIS7_SaIS7_EEEElS7_NS0_5__ops15_Iter_comp_iterIZN8argparse8ArgumentC4ILm2EJLm0ELm1EEEEOSt5arrayISt17basic_string_viewIcS5_EXT_EESt16integer_sequenceImJXspT0_EEEEUlRKT_RKT0_E_EEEvSP_SS_SS_T1_T2_.isra.0+0x530>
    5223:	49 8b 51 10          	mov    0x10(%r9),%rdx
    5227:	4c 89 54 24 30       	mov    %r10,0x30(%rsp)
    522c:	48 89 54 24 40       	mov    %rdx,0x40(%rsp)
    5231:	49 89 01             	mov    %rax,(%r9)
    5234:	48 8d 45 ff          	lea    -0x1(%rbp),%rax
    5238:	49 89 c6             	mov    %rax,%r14
    523b:	49 8b 71 08          	mov    0x8(%r9),%rsi
    523f:	49 c1 ee 3f          	shr    $0x3f,%r14
    5243:	49 01 c6             	add    %rax,%r14
    5246:	48 89 74 24 38       	mov    %rsi,0x38(%rsp)
    524b:	49 c7 41 08 00 00 00 	movq   $0x0,0x8(%r9)
    5252:	00 
    5253:	41 c6 41 10 00       	movb   $0x0,0x10(%r9)
    5258:	49 d1 fe             	sar    %r14
    525b:	4c 39 ed             	cmp    %r13,%rbp
    525e:	0f 8f 8d 00 00 00    	jg     52f1 <_ZSt13__adjust_heapIN9__gnu_cxx17__normal_iteratorIPNSt7__cxx1112basic_stringIcSt11char_traitsIcESaIcEEESt6vectorIS7_SaIS7_EEEElS7_NS0_5__ops15_Iter_comp_iterIZN8argparse8ArgumentC4ILm2EJLm0ELm1EEEEOSt5arrayISt17basic_string_viewIcS5_EXT_EESt16integer_sequenceImJXspT0_EEEEUlRKT_RKT0_E_EEEvSP_SS_SS_T1_T2_.isra.0+0x2c1>
    5264:	e9 a4 02 00 00       	jmp    550d <_ZSt13__adjust_heapIN9__gnu_cxx17__normal_iteratorIPNSt7__cxx1112basic_stringIcSt11char_traitsIcESaIcEEESt6vectorIS7_SaIS7_EEEElS7_NS0_5__ops15_Iter_comp_iterIZN8argparse8ArgumentC4ILm2EJLm0ELm1EEEEOSt5arrayISt17basic_string_viewIcS5_EXT_EESt16integer_sequenceImJXspT0_EEEEUlRKT_RKT0_E_EEEvSP_SS_SS_T1_T2_.isra.0+0x4dd>
    5269:	0f 1f 80 00 00 00 00 	nopl   0x0(%rax)
    5270:	0f 86 d2 02 00 00    	jbe    5548 <_ZSt13__adjust_heapIN9__gnu_cxx17__normal_iteratorIPNSt7__cxx1112basic_stringIcSt11char_traitsIcESaIcEEESt6vectorIS7_SaIS7_EEEElS7_NS0_5__ops15_Iter_comp_iterIZN8argparse8ArgumentC4ILm2EJLm0ELm1EEEEOSt5arrayISt17basic_string_viewIcS5_EXT_EESt16integer_sequenceImJXspT0_EEEEUlRKT_RKT0_E_EEEvSP_SS_SS_T1_T2_.isra.0+0x518>
    5276:	48 c1 e5 05          	shl    $0x5,%rbp
    527a:	4c 8b 03             	mov    (%rbx),%r8
    527d:	4c 01 fd             	add    %r15,%rbp
    5280:	48 8d 73 10          	lea    0x10(%rbx),%rsi
    5284:	48 8b 7d 00          	mov    0x0(%rbp),%rdi
    5288:	49 39 f0             	cmp    %rsi,%r8
    528b:	0f 84 ef 01 00 00    	je     5480 <_ZSt13__adjust_heapIN9__gnu_cxx17__normal_iteratorIPNSt7__cxx1112basic_stringIcSt11char_traitsIcESaIcEEESt6vectorIS7_SaIS7_EEEElS7_NS0_5__ops15_Iter_comp_iterIZN8argparse8ArgumentC4ILm2EJLm0ELm1EEEEOSt5arrayISt17basic_string_viewIcS5_EXT_EESt16integer_sequenceImJXspT0_EEEEUlRKT_RKT0_E_EEEvSP_SS_SS_T1_T2_.isra.0+0x450>
    5291:	48 39 f9             	cmp    %rdi,%rcx
    5294:	0f 84 be 01 00 00    	je     5458 <_ZSt13__adjust_heapIN9__gnu_cxx17__normal_iteratorIPNSt7__cxx1112basic_stringIcSt11char_traitsIcESaIcEEESt6vectorIS7_SaIS7_EEEElS7_NS0_5__ops15_Iter_comp_iterIZN8argparse8ArgumentC4ILm2EJLm0ELm1EEEEOSt5arrayISt17basic_string_viewIcS5_EXT_EESt16integer_sequenceImJXspT0_EEEEUlRKT_RKT0_E_EEEvSP_SS_SS_T1_T2_.isra.0+0x428>
    529a:	4c 89 45 00          	mov    %r8,0x0(%rbp)
    529e:	48 89 55 08          	mov    %rdx,0x8(%rbp)
    52a2:	48 8b 45 10          	mov    0x10(%rbp),%rax
    52a6:	48 8b 53 10          	mov    0x10(%rbx),%rdx
    52aa:	48 89 55 10          	mov    %rdx,0x10(%rbp)
    52ae:	48 85 ff             	test   %rdi,%rdi
    52b1:	0f 84 b1 01 00 00    	je     5468 <_ZSt13__adjust_heapIN9__gnu_cxx17__normal_iteratorIPNSt7__cxx1112basic_stringIcSt11char_traitsIcESaIcEEESt6vectorIS7_SaIS7_EEEElS7_NS0_5__ops15_Iter_comp_iterIZN8argparse8ArgumentC4ILm2EJLm0ELm1EEEEOSt5arrayISt17basic_string_viewIcS5_EXT_EESt16integer_sequenceImJXspT0_EEEEUlRKT_RKT0_E_EEEvSP_SS_SS_T1_T2_.isra.0+0x438>
    52b7:	48 89 3b             	mov    %rdi,(%rbx)
    52ba:	48 89 43 10          	mov    %rax,0x10(%rbx)
    52be:	48 89 f1             	mov    %rsi,%rcx
    52c1:	49 8d 56 ff          	lea    -0x1(%r14),%rdx
    52c5:	48 c7 43 08 00 00 00 	movq   $0x0,0x8(%rbx)
    52cc:	00 
    52cd:	48 89 d0             	mov    %rdx,%rax
    52d0:	c6 07 00             	movb   $0x0,(%rdi)
    52d3:	48 c1 e8 3f          	shr    $0x3f,%rax
    52d7:	48 01 d0             	add    %rdx,%rax
    52da:	48 8b 74 24 38       	mov    0x38(%rsp),%rsi
    52df:	48 d1 f8             	sar    %rax
    52e2:	4d 39 f5             	cmp    %r14,%r13
    52e5:	0f 8d 1d 02 00 00    	jge    5508 <_ZSt13__adjust_heapIN9__gnu_cxx17__normal_iteratorIPNSt7__cxx1112basic_stringIcSt11char_traitsIcESaIcEEESt6vectorIS7_SaIS7_EEEElS7_NS0_5__ops15_Iter_comp_iterIZN8argparse8ArgumentC4ILm2EJLm0ELm1EEEEOSt5arrayISt17basic_string_viewIcS5_EXT_EESt16integer_sequenceImJXspT0_EEEEUlRKT_RKT0_E_EEEvSP_SS_SS_T1_T2_.isra.0+0x4d8>
    52eb:	4c 89 f5             	mov    %r14,%rbp
    52ee:	49 89 c6             	mov    %rax,%r14
    52f1:	4c 89 f3             	mov    %r14,%rbx
    52f4:	48 c1 e3 05          	shl    $0x5,%rbx
    52f8:	4c 01 fb             	add    %r15,%rbx
    52fb:	48 8b 53 08          	mov    0x8(%rbx),%rdx
    52ff:	48 39 d6             	cmp    %rdx,%rsi
    5302:	0f 85 68 ff ff ff    	jne    5270 <_ZSt13__adjust_heapIN9__gnu_cxx17__normal_iteratorIPNSt7__cxx1112basic_stringIcSt11char_traitsIcESaIcEEESt6vectorIS7_SaIS7_EEEElS7_NS0_5__ops15_Iter_comp_iterIZN8argparse8ArgumentC4ILm2EJLm0ELm1EEEEOSt5arrayISt17basic_string_viewIcS5_EXT_EESt16integer_sequenceImJXspT0_EEEEUlRKT_RKT0_E_EEEvSP_SS_SS_T1_T2_.isra.0+0x240>
    5308:	4c 8b 54 24 30       	mov    0x30(%rsp),%r10
    530d:	48 85 d2             	test   %rdx,%rdx
    5310:	0f 84 8a 01 00 00    	je     54a0 <_ZSt13__adjust_heapIN9__gnu_cxx17__normal_iteratorIPNSt7__cxx1112basic_stringIcSt11char_traitsIcESaIcEEESt6vectorIS7_SaIS7_EEEElS7_NS0_5__ops15_Iter_comp_iterIZN8argparse8ArgumentC4ILm2EJLm0ELm1EEEEOSt5arrayISt17basic_string_viewIcS5_EXT_EESt16integer_sequenceImJXspT0_EEEEUlRKT_RKT0_E_EEEvSP_SS_SS_T1_T2_.isra.0+0x470>
    5316:	4c 8b 03             	mov    (%rbx),%r8
    5319:	4c 89 d6             	mov    %r10,%rsi
    531c:	4c 89 c7             	mov    %r8,%rdi
    531f:	48 89 4c 24 18       	mov    %rcx,0x18(%rsp)
    5324:	48 89 54 24 10       	mov    %rdx,0x10(%rsp)
    5329:	4c 89 54 24 08       	mov    %r10,0x8(%rsp)
    532e:	4c 89 04 24          	mov    %r8,(%rsp)
    5332:	e8 39 df ff ff       	call   3270 <memcmp@plt>
    5337:	85 c0                	test   %eax,%eax
    5339:	4c 8b 04 24          	mov    (%rsp),%r8
    533d:	4c 8b 54 24 08       	mov    0x8(%rsp),%r10
    5342:	48 8b 54 24 10       	mov    0x10(%rsp),%rdx
    5347:	48 8b 4c 24 18       	mov    0x18(%rsp),%rcx
    534c:	0f 85 b6 00 00 00    	jne    5408 <_ZSt13__adjust_heapIN9__gnu_cxx17__normal_iteratorIPNSt7__cxx1112basic_stringIcSt11char_traitsIcESaIcEEESt6vectorIS7_SaIS7_EEEElS7_NS0_5__ops15_Iter_comp_iterIZN8argparse8ArgumentC4ILm2EJLm0ELm1EEEEOSt5arrayISt17basic_string_viewIcS5_EXT_EESt16integer_sequenceImJXspT0_EEEEUlRKT_RKT0_E_EEEvSP_SS_SS_T1_T2_.isra.0+0x3d8>
    5352:	48 c1 e5 05          	shl    $0x5,%rbp
    5356:	49 8d 1c 2f          	lea    (%r15,%rbp,1),%rbx
    535a:	48 8b 3b             	mov    (%rbx),%rdi
    535d:	4d 39 e2             	cmp    %r12,%r10
    5360:	0f 84 8a 02 00 00    	je     55f0 <_ZSt13__adjust_heapIN9__gnu_cxx17__normal_iteratorIPNSt7__cxx1112basic_stringIcSt11char_traitsIcESaIcEEESt6vectorIS7_SaIS7_EEEElS7_NS0_5__ops15_Iter_comp_iterIZN8argparse8ArgumentC4ILm2EJLm0ELm1EEEEOSt5arrayISt17basic_string_viewIcS5_EXT_EESt16integer_sequenceImJXspT0_EEEEUlRKT_RKT0_E_EEEvSP_SS_SS_T1_T2_.isra.0+0x5c0>
    5366:	48 8b 44 24 40       	mov    0x40(%rsp),%rax
    536b:	48 39 f9             	cmp    %rdi,%rcx
    536e:	0f 84 6c 01 00 00    	je     54e0 <_ZSt13__adjust_heapIN9__gnu_cxx17__normal_iteratorIPNSt7__cxx1112basic_stringIcSt11char_traitsIcESaIcEEESt6vectorIS7_SaIS7_EEEElS7_NS0_5__ops15_Iter_comp_iterIZN8argparse8ArgumentC4ILm2EJLm0ELm1EEEEOSt5arrayISt17basic_string_viewIcS5_EXT_EESt16integer_sequenceImJXspT0_EEEEUlRKT_RKT0_E_EEEvSP_SS_SS_T1_T2_.isra.0+0x4b0>
    5374:	c4 e1 f9 6e ca       	vmovq  %rdx,%xmm1
    5379:	c4 e3 f1 22 c0 01    	vpinsrq $0x1,%rax,%xmm1,%xmm0
    537f:	48 8b 4b 10          	mov    0x10(%rbx),%rcx
    5383:	4c 89 13             	mov    %r10,(%rbx)
    5386:	c5 fa 7f 43 08       	vmovdqu %xmm0,0x8(%rbx)
    538b:	48 85 ff             	test   %rdi,%rdi
    538e:	0f 84 5f 01 00 00    	je     54f3 <_ZSt13__adjust_heapIN9__gnu_cxx17__normal_iteratorIPNSt7__cxx1112basic_stringIcSt11char_traitsIcESaIcEEESt6vectorIS7_SaIS7_EEEElS7_NS0_5__ops15_Iter_comp_iterIZN8argparse8ArgumentC4ILm2EJLm0ELm1EEEEOSt5arrayISt17basic_string_viewIcS5_EXT_EESt16integer_sequenceImJXspT0_EEEEUlRKT_RKT0_E_EEEvSP_SS_SS_T1_T2_.isra.0+0x4c3>
    5394:	48 89 7c 24 30       	mov    %rdi,0x30(%rsp)
    5399:	48 89 4c 24 40       	mov    %rcx,0x40(%rsp)
    539e:	48 c7 44 24 38 00 00 	movq   $0x0,0x38(%rsp)
    53a5:	00 00 
    53a7:	c6 07 00             	movb   $0x0,(%rdi)
    53aa:	48 8b 7c 24 30       	mov    0x30(%rsp),%rdi
    53af:	4c 39 e7             	cmp    %r12,%rdi
    53b2:	74 0e                	je     53c2 <_ZSt13__adjust_heapIN9__gnu_cxx17__normal_iteratorIPNSt7__cxx1112basic_stringIcSt11char_traitsIcESaIcEEESt6vectorIS7_SaIS7_EEEElS7_NS0_5__ops15_Iter_comp_iterIZN8argparse8ArgumentC4ILm2EJLm0ELm1EEEEOSt5arrayISt17basic_string_viewIcS5_EXT_EESt16integer_sequenceImJXspT0_EEEEUlRKT_RKT0_E_EEEvSP_SS_SS_T1_T2_.isra.0+0x392>
    53b4:	48 8b 44 24 40       	mov    0x40(%rsp),%rax
    53b9:	48 8d 70 01          	lea    0x1(%rax),%rsi
    53bd:	e8 5e df ff ff       	call   3320 <_ZdlPvm@plt>
    53c2:	48 8b 44 24 58       	mov    0x58(%rsp),%rax
    53c7:	64 48 2b 04 25 28 00 	sub    %fs:0x28,%rax
    53ce:	00 00 
    53d0:	0f 85 b8 02 00 00    	jne    568e <_ZSt13__adjust_heapIN9__gnu_cxx17__normal_iteratorIPNSt7__cxx1112basic_stringIcSt11char_traitsIcESaIcEEESt6vectorIS7_SaIS7_EEEElS7_NS0_5__ops15_Iter_comp_iterIZN8argparse8ArgumentC4ILm2EJLm0ELm1EEEEOSt5arrayISt17basic_string_viewIcS5_EXT_EESt16integer_sequenceImJXspT0_EEEEUlRKT_RKT0_E_EEEvSP_SS_SS_T1_T2_.isra.0+0x65e>
    53d6:	48 83 c4 68          	add    $0x68,%rsp
    53da:	5b                   	pop    %rbx
    53db:	5d                   	pop    %rbp
    53dc:	41 5c                	pop    %r12
    53de:	41 5d                	pop    %r13
    53e0:	41 5e                	pop    %r14
    53e2:	41 5f                	pop    %r15
    53e4:	c3                   	ret    
    53e5:	0f 1f 00             	nopl   (%rax)
    53e8:	49 89 04 24          	mov    %rax,(%r12)
    53ec:	49 89 54 24 08       	mov    %rdx,0x8(%r12)
    53f1:	48 8b 43 10          	mov    0x10(%rbx),%rax
    53f5:	49 89 44 24 10       	mov    %rax,0x10(%r12)
    53fa:	48 89 0b             	mov    %rcx,(%rbx)
    53fd:	48 89 cf             	mov    %rcx,%rdi
    5400:	e9 e2 fc ff ff       	jmp    50e7 <_ZSt13__adjust_heapIN9__gnu_cxx17__normal_iteratorIPNSt7__cxx1112basic_stringIcSt11char_traitsIcESaIcEEESt6vectorIS7_SaIS7_EEEElS7_NS0_5__ops15_Iter_comp_iterIZN8argparse8ArgumentC4ILm2EJLm0ELm1EEEEOSt5arrayISt17basic_string_viewIcS5_EXT_EESt16integer_sequenceImJXspT0_EEEEUlRKT_RKT0_E_EEEvSP_SS_SS_T1_T2_.isra.0+0xb7>
    5405:	0f 1f 00             	nopl   (%rax)
    5408:	0f 89 85 02 00 00    	jns    5693 <_ZSt13__adjust_heapIN9__gnu_cxx17__normal_iteratorIPNSt7__cxx1112basic_stringIcSt11char_traitsIcESaIcEEESt6vectorIS7_SaIS7_EEEElS7_NS0_5__ops15_Iter_comp_iterIZN8argparse8ArgumentC4ILm2EJLm0ELm1EEEEOSt5arrayISt17basic_string_viewIcS5_EXT_EESt16integer_sequenceImJXspT0_EEEEUlRKT_RKT0_E_EEEvSP_SS_SS_T1_T2_.isra.0+0x663>
    540e:	48 c1 e5 05          	shl    $0x5,%rbp
    5412:	4c 01 fd             	add    %r15,%rbp
    5415:	48 8d 73 10          	lea    0x10(%rbx),%rsi
    5419:	48 8b 7d 00          	mov    0x0(%rbp),%rdi
    541d:	49 39 f0             	cmp    %rsi,%r8
    5420:	0f 85 6b fe ff ff    	jne    5291 <_ZSt13__adjust_heapIN9__gnu_cxx17__normal_iteratorIPNSt7__cxx1112basic_stringIcSt11char_traitsIcESaIcEEESt6vectorIS7_SaIS7_EEEElS7_NS0_5__ops15_Iter_comp_iterIZN8argparse8ArgumentC4ILm2EJLm0ELm1EEEEOSt5arrayISt17basic_string_viewIcS5_EXT_EESt16integer_sequenceImJXspT0_EEEEUlRKT_RKT0_E_EEEvSP_SS_SS_T1_T2_.isra.0+0x261>
    5426:	48 83 fa 01          	cmp    $0x1,%rdx
    542a:	74 5f                	je     548b <_ZSt13__adjust_heapIN9__gnu_cxx17__normal_iteratorIPNSt7__cxx1112basic_stringIcSt11char_traitsIcESaIcEEESt6vectorIS7_SaIS7_EEEElS7_NS0_5__ops15_Iter_comp_iterIZN8argparse8ArgumentC4ILm2EJLm0ELm1EEEEOSt5arrayISt17basic_string_viewIcS5_EXT_EESt16integer_sequenceImJXspT0_EEEEUlRKT_RKT0_E_EEEvSP_SS_SS_T1_T2_.isra.0+0x45b>
    542c:	48 89 34 24          	mov    %rsi,(%rsp)
    5430:	e8 0b dd ff ff       	call   3140 <memcpy@plt>
    5435:	48 8b 53 08          	mov    0x8(%rbx),%rdx
    5439:	48 8b 7d 00          	mov    0x0(%rbp),%rdi
    543d:	48 8b 34 24          	mov    (%rsp),%rsi
    5441:	48 89 55 08          	mov    %rdx,0x8(%rbp)
    5445:	c6 04 17 00          	movb   $0x0,(%rdi,%rdx,1)
    5449:	48 89 f1             	mov    %rsi,%rcx
    544c:	48 8b 3b             	mov    (%rbx),%rdi
    544f:	e9 6d fe ff ff       	jmp    52c1 <_ZSt13__adjust_heapIN9__gnu_cxx17__normal_iteratorIPNSt7__cxx1112basic_stringIcSt11char_traitsIcESaIcEEESt6vectorIS7_SaIS7_EEEElS7_NS0_5__ops15_Iter_comp_iterIZN8argparse8ArgumentC4ILm2EJLm0ELm1EEEEOSt5arrayISt17basic_string_viewIcS5_EXT_EESt16integer_sequenceImJXspT0_EEEEUlRKT_RKT0_E_EEEvSP_SS_SS_T1_T2_.isra.0+0x291>
    5454:	0f 1f 40 00          	nopl   0x0(%rax)
    5458:	4c 89 45 00          	mov    %r8,0x0(%rbp)
    545c:	48 89 55 08          	mov    %rdx,0x8(%rbp)
    5460:	48 8b 43 10          	mov    0x10(%rbx),%rax
    5464:	48 89 45 10          	mov    %rax,0x10(%rbp)
    5468:	48 89 33             	mov    %rsi,(%rbx)
    546b:	48 89 f1             	mov    %rsi,%rcx
    546e:	48 89 f7             	mov    %rsi,%rdi
    5471:	e9 4b fe ff ff       	jmp    52c1 <_ZSt13__adjust_heapIN9__gnu_cxx17__normal_iteratorIPNSt7__cxx1112basic_stringIcSt11char_traitsIcESaIcEEESt6vectorIS7_SaIS7_EEEElS7_NS0_5__ops15_Iter_comp_iterIZN8argparse8ArgumentC4ILm2EJLm0ELm1EEEEOSt5arrayISt17basic_string_viewIcS5_EXT_EESt16integer_sequenceImJXspT0_EEEEUlRKT_RKT0_E_EEEvSP_SS_SS_T1_T2_.isra.0+0x291>
    5476:	66 2e 0f 1f 84 00 00 	cs nopw 0x0(%rax,%rax,1)
    547d:	00 00 00 
    5480:	48 85 d2             	test   %rdx,%rdx
    5483:	74 bc                	je     5441 <_ZSt13__adjust_heapIN9__gnu_cxx17__normal_iteratorIPNSt7__cxx1112basic_stringIcSt11char_traitsIcESaIcEEESt6vectorIS7_SaIS7_EEEElS7_NS0_5__ops15_Iter_comp_iterIZN8argparse8ArgumentC4ILm2EJLm0ELm1EEEEOSt5arrayISt17basic_string_viewIcS5_EXT_EESt16integer_sequenceImJXspT0_EEEEUlRKT_RKT0_E_EEEvSP_SS_SS_T1_T2_.isra.0+0x411>
    5485:	48 83 fa 01          	cmp    $0x1,%rdx
    5489:	75 a1                	jne    542c <_ZSt13__adjust_heapIN9__gnu_cxx17__normal_iteratorIPNSt7__cxx1112basic_stringIcSt11char_traitsIcESaIcEEESt6vectorIS7_SaIS7_EEEElS7_NS0_5__ops15_Iter_comp_iterIZN8argparse8ArgumentC4ILm2EJLm0ELm1EEEEOSt5arrayISt17basic_string_viewIcS5_EXT_EESt16integer_sequenceImJXspT0_EEEEUlRKT_RKT0_E_EEEvSP_SS_SS_T1_T2_.isra.0+0x3fc>
    548b:	0f b6 43 10          	movzbl 0x10(%rbx),%eax
    548f:	88 07                	mov    %al,(%rdi)
    5491:	48 8b 53 08          	mov    0x8(%rbx),%rdx
    5495:	48 8b 7d 00          	mov    0x0(%rbp),%rdi
    5499:	eb a6                	jmp    5441 <_ZSt13__adjust_heapIN9__gnu_cxx17__normal_iteratorIPNSt7__cxx1112basic_stringIcSt11char_traitsIcESaIcEEESt6vectorIS7_SaIS7_EEEElS7_NS0_5__ops15_Iter_comp_iterIZN8argparse8ArgumentC4ILm2EJLm0ELm1EEEEOSt5arrayISt17basic_string_viewIcS5_EXT_EESt16integer_sequenceImJXspT0_EEEEUlRKT_RKT0_E_EEEvSP_SS_SS_T1_T2_.isra.0+0x411>
    549b:	0f 1f 44 00 00       	nopl   0x0(%rax,%rax,1)
    54a0:	48 c1 e5 05          	shl    $0x5,%rbp
    54a4:	49 8d 1c 2f          	lea    (%r15,%rbp,1),%rbx
    54a8:	48 8b 3b             	mov    (%rbx),%rdi
    54ab:	4d 39 e2             	cmp    %r12,%r10
    54ae:	0f 85 b2 fe ff ff    	jne    5366 <_ZSt13__adjust_heapIN9__gnu_cxx17__normal_iteratorIPNSt7__cxx1112basic_stringIcSt11char_traitsIcESaIcEEESt6vectorIS7_SaIS7_EEEElS7_NS0_5__ops15_Iter_comp_iterIZN8argparse8ArgumentC4ILm2EJLm0ELm1EEEEOSt5arrayISt17basic_string_viewIcS5_EXT_EESt16integer_sequenceImJXspT0_EEEEUlRKT_RKT0_E_EEEvSP_SS_SS_T1_T2_.isra.0+0x336>
    54b4:	48 89 53 08          	mov    %rdx,0x8(%rbx)
    54b8:	c6 04 17 00          	movb   $0x0,(%rdi,%rdx,1)
    54bc:	48 8b 7c 24 30       	mov    0x30(%rsp),%rdi
    54c1:	e9 d8 fe ff ff       	jmp    539e <_ZSt13__adjust_heapIN9__gnu_cxx17__normal_iteratorIPNSt7__cxx1112basic_stringIcSt11char_traitsIcESaIcEEESt6vectorIS7_SaIS7_EEEElS7_NS0_5__ops15_Iter_comp_iterIZN8argparse8ArgumentC4ILm2EJLm0ELm1EEEEOSt5arrayISt17basic_string_viewIcS5_EXT_EESt16integer_sequenceImJXspT0_EEEEUlRKT_RKT0_E_EEEvSP_SS_SS_T1_T2_.isra.0+0x36e>
    54c6:	66 2e 0f 1f 84 00 00 	cs nopw 0x0(%rax,%rax,1)
    54cd:	00 00 00 
    54d0:	48 89 cb             	mov    %rcx,%rbx
    54d3:	4c 89 dd             	mov    %r11,%rbp
    54d6:	e9 c1 fb ff ff       	jmp    509c <_ZSt13__adjust_heapIN9__gnu_cxx17__normal_iteratorIPNSt7__cxx1112basic_stringIcSt11char_traitsIcESaIcEEESt6vectorIS7_SaIS7_EEEElS7_NS0_5__ops15_Iter_comp_iterIZN8argparse8ArgumentC4ILm2EJLm0ELm1EEEEOSt5arrayISt17basic_string_viewIcS5_EXT_EESt16integer_sequenceImJXspT0_EEEEUlRKT_RKT0_E_EEEvSP_SS_SS_T1_T2_.isra.0+0x6c>
    54db:	0f 1f 44 00 00       	nopl   0x0(%rax,%rax,1)
    54e0:	c4 e1 f9 6e d2       	vmovq  %rdx,%xmm2
    54e5:	4c 89 13             	mov    %r10,(%rbx)
    54e8:	c4 e3 e9 22 c0 01    	vpinsrq $0x1,%rax,%xmm2,%xmm0
    54ee:	c5 fa 7f 43 08       	vmovdqu %xmm0,0x8(%rbx)
    54f3:	4c 89 64 24 30       	mov    %r12,0x30(%rsp)
    54f8:	4c 8d 64 24 40       	lea    0x40(%rsp),%r12
    54fd:	4c 89 e7             	mov    %r12,%rdi
    5500:	e9 99 fe ff ff       	jmp    539e <_ZSt13__adjust_heapIN9__gnu_cxx17__normal_iteratorIPNSt7__cxx1112basic_stringIcSt11char_traitsIcESaIcEEESt6vectorIS7_SaIS7_EEEElS7_NS0_5__ops15_Iter_comp_iterIZN8argparse8ArgumentC4ILm2EJLm0ELm1EEEEOSt5arrayISt17basic_string_viewIcS5_EXT_EESt16integer_sequenceImJXspT0_EEEEUlRKT_RKT0_E_EEEvSP_SS_SS_T1_T2_.isra.0+0x36e>
    5505:	0f 1f 00             	nopl   (%rax)
    5508:	4c 8b 54 24 30       	mov    0x30(%rsp),%r10
    550d:	48 8b 3b             	mov    (%rbx),%rdi
    5510:	4d 39 e2             	cmp    %r12,%r10
    5513:	0f 85 89 01 00 00    	jne    56a2 <_ZSt13__adjust_heapIN9__gnu_cxx17__normal_iteratorIPNSt7__cxx1112basic_stringIcSt11char_traitsIcESaIcEEESt6vectorIS7_SaIS7_EEEElS7_NS0_5__ops15_Iter_comp_iterIZN8argparse8ArgumentC4ILm2EJLm0ELm1EEEEOSt5arrayISt17basic_string_viewIcS5_EXT_EESt16integer_sequenceImJXspT0_EEEEUlRKT_RKT0_E_EEEvSP_SS_SS_T1_T2_.isra.0+0x672>
    5519:	48 85 f6             	test   %rsi,%rsi
    551c:	0f 85 c1 00 00 00    	jne    55e3 <_ZSt13__adjust_heapIN9__gnu_cxx17__normal_iteratorIPNSt7__cxx1112basic_stringIcSt11char_traitsIcESaIcEEESt6vectorIS7_SaIS7_EEEElS7_NS0_5__ops15_Iter_comp_iterIZN8argparse8ArgumentC4ILm2EJLm0ELm1EEEEOSt5arrayISt17basic_string_viewIcS5_EXT_EESt16integer_sequenceImJXspT0_EEEEUlRKT_RKT0_E_EEEvSP_SS_SS_T1_T2_.isra.0+0x5b3>
    5522:	31 d2                	xor    %edx,%edx
    5524:	eb 8e                	jmp    54b4 <_ZSt13__adjust_heapIN9__gnu_cxx17__normal_iteratorIPNSt7__cxx1112basic_stringIcSt11char_traitsIcESaIcEEESt6vectorIS7_SaIS7_EEEElS7_NS0_5__ops15_Iter_comp_iterIZN8argparse8ArgumentC4ILm2EJLm0ELm1EEEEOSt5arrayISt17basic_string_viewIcS5_EXT_EESt16integer_sequenceImJXspT0_EEEEUlRKT_RKT0_E_EEEvSP_SS_SS_T1_T2_.isra.0+0x484>
    5526:	66 2e 0f 1f 84 00 00 	cs nopw 0x0(%rax,%rax,1)
    552d:	00 00 00 
    5530:	0f b6 43 10          	movzbl 0x10(%rbx),%eax
    5534:	88 07                	mov    %al,(%rdi)
    5536:	48 8b 53 08          	mov    0x8(%rbx),%rdx
    553a:	49 8b 3c 24          	mov    (%r12),%rdi
    553e:	e9 80 fc ff ff       	jmp    51c3 <_ZSt13__adjust_heapIN9__gnu_cxx17__normal_iteratorIPNSt7__cxx1112basic_stringIcSt11char_traitsIcESaIcEEESt6vectorIS7_SaIS7_EEEElS7_NS0_5__ops15_Iter_comp_iterIZN8argparse8ArgumentC4ILm2EJLm0ELm1EEEEOSt5arrayISt17basic_string_viewIcS5_EXT_EESt16integer_sequenceImJXspT0_EEEEUlRKT_RKT0_E_EEEvSP_SS_SS_T1_T2_.isra.0+0x193>
    5543:	0f 1f 44 00 00       	nopl   0x0(%rax,%rax,1)
    5548:	48 c1 e5 05          	shl    $0x5,%rbp
    554c:	4c 8b 54 24 30       	mov    0x30(%rsp),%r10
    5551:	49 8d 1c 2f          	lea    (%r15,%rbp,1),%rbx
    5555:	eb b6                	jmp    550d <_ZSt13__adjust_heapIN9__gnu_cxx17__normal_iteratorIPNSt7__cxx1112basic_stringIcSt11char_traitsIcESaIcEEESt6vectorIS7_SaIS7_EEEElS7_NS0_5__ops15_Iter_comp_iterIZN8argparse8ArgumentC4ILm2EJLm0ELm1EEEEOSt5arrayISt17basic_string_viewIcS5_EXT_EESt16integer_sequenceImJXspT0_EEEEUlRKT_RKT0_E_EEEvSP_SS_SS_T1_T2_.isra.0+0x4dd>
    5557:	66 0f 1f 84 00 00 00 	nopw   0x0(%rax,%rax,1)
    555e:	00 00 
    5560:	c4 c1 7a 6f 59 10    	vmovdqu 0x10(%r9),%xmm3
    5566:	4d 89 e2             	mov    %r12,%r10
    5569:	c5 f9 7f 5c 24 40    	vmovdqa %xmm3,0x40(%rsp)
    556f:	e9 bd fc ff ff       	jmp    5231 <_ZSt13__adjust_heapIN9__gnu_cxx17__normal_iteratorIPNSt7__cxx1112basic_stringIcSt11char_traitsIcESaIcEEESt6vectorIS7_SaIS7_EEEElS7_NS0_5__ops15_Iter_comp_iterIZN8argparse8ArgumentC4ILm2EJLm0ELm1EEEEOSt5arrayISt17basic_string_viewIcS5_EXT_EESt16integer_sequenceImJXspT0_EEEEUlRKT_RKT0_E_EEEvSP_SS_SS_T1_T2_.isra.0+0x201>
    5574:	0f 1f 40 00          	nopl   0x0(%rax)
    5578:	48 8d 6c 2d 01       	lea    0x1(%rbp,%rbp,1),%rbp
    557d:	49 89 ec             	mov    %rbp,%r12
    5580:	49 c1 e4 05          	shl    $0x5,%r12
    5584:	4d 01 fc             	add    %r15,%r12
    5587:	49 8b 04 24          	mov    (%r12),%rax
    558b:	4d 8d 74 24 10       	lea    0x10(%r12),%r14
    5590:	48 8b 3b             	mov    (%rbx),%rdi
    5593:	49 8b 54 24 08       	mov    0x8(%r12),%rdx
    5598:	4c 39 f0             	cmp    %r14,%rax
    559b:	0f 84 a7 00 00 00    	je     5648 <_ZSt13__adjust_heapIN9__gnu_cxx17__normal_iteratorIPNSt7__cxx1112basic_stringIcSt11char_traitsIcESaIcEEESt6vectorIS7_SaIS7_EEEElS7_NS0_5__ops15_Iter_comp_iterIZN8argparse8ArgumentC4ILm2EJLm0ELm1EEEEOSt5arrayISt17basic_string_viewIcS5_EXT_EESt16integer_sequenceImJXspT0_EEEEUlRKT_RKT0_E_EEEvSP_SS_SS_T1_T2_.isra.0+0x618>
    55a1:	48 39 cf             	cmp    %rcx,%rdi
    55a4:	0f 84 85 00 00 00    	je     562f <_ZSt13__adjust_heapIN9__gnu_cxx17__normal_iteratorIPNSt7__cxx1112basic_stringIcSt11char_traitsIcESaIcEEESt6vectorIS7_SaIS7_EEEElS7_NS0_5__ops15_Iter_comp_iterIZN8argparse8ArgumentC4ILm2EJLm0ELm1EEEEOSt5arrayISt17basic_string_viewIcS5_EXT_EESt16integer_sequenceImJXspT0_EEEEUlRKT_RKT0_E_EEEvSP_SS_SS_T1_T2_.isra.0+0x5ff>
    55aa:	48 89 03             	mov    %rax,(%rbx)
    55ad:	48 89 53 08          	mov    %rdx,0x8(%rbx)
    55b1:	48 8b 4b 10          	mov    0x10(%rbx),%rcx
    55b5:	49 8b 44 24 10       	mov    0x10(%r12),%rax
    55ba:	48 89 43 10          	mov    %rax,0x10(%rbx)
    55be:	48 85 ff             	test   %rdi,%rdi
    55c1:	74 7c                	je     563f <_ZSt13__adjust_heapIN9__gnu_cxx17__normal_iteratorIPNSt7__cxx1112basic_stringIcSt11char_traitsIcESaIcEEESt6vectorIS7_SaIS7_EEEElS7_NS0_5__ops15_Iter_comp_iterIZN8argparse8ArgumentC4ILm2EJLm0ELm1EEEEOSt5arrayISt17basic_string_viewIcS5_EXT_EESt16integer_sequenceImJXspT0_EEEEUlRKT_RKT0_E_EEEvSP_SS_SS_T1_T2_.isra.0+0x60f>
    55c3:	49 89 3c 24          	mov    %rdi,(%r12)
    55c7:	49 89 4c 24 10       	mov    %rcx,0x10(%r12)
    55cc:	49 c7 44 24 08 00 00 	movq   $0x0,0x8(%r12)
    55d3:	00 00 
    55d5:	4c 89 f1             	mov    %r14,%rcx
    55d8:	c6 07 00             	movb   $0x0,(%rdi)
    55db:	4c 89 e3             	mov    %r12,%rbx
    55de:	e9 26 fc ff ff       	jmp    5209 <_ZSt13__adjust_heapIN9__gnu_cxx17__normal_iteratorIPNSt7__cxx1112basic_stringIcSt11char_traitsIcESaIcEEESt6vectorIS7_SaIS7_EEEElS7_NS0_5__ops15_Iter_comp_iterIZN8argparse8ArgumentC4ILm2EJLm0ELm1EEEEOSt5arrayISt17basic_string_viewIcS5_EXT_EESt16integer_sequenceImJXspT0_EEEEUlRKT_RKT0_E_EEEvSP_SS_SS_T1_T2_.isra.0+0x1d9>
    55e3:	48 89 f2             	mov    %rsi,%rdx
    55e6:	66 2e 0f 1f 84 00 00 	cs nopw 0x0(%rax,%rax,1)
    55ed:	00 00 00 
    55f0:	48 83 fa 01          	cmp    $0x1,%rdx
    55f4:	74 25                	je     561b <_ZSt13__adjust_heapIN9__gnu_cxx17__normal_iteratorIPNSt7__cxx1112basic_stringIcSt11char_traitsIcESaIcEEESt6vectorIS7_SaIS7_EEEElS7_NS0_5__ops15_Iter_comp_iterIZN8argparse8ArgumentC4ILm2EJLm0ELm1EEEEOSt5arrayISt17basic_string_viewIcS5_EXT_EESt16integer_sequenceImJXspT0_EEEEUlRKT_RKT0_E_EEEvSP_SS_SS_T1_T2_.isra.0+0x5eb>
    55f6:	4c 89 e6             	mov    %r12,%rsi
    55f9:	e8 42 db ff ff       	call   3140 <memcpy@plt>
    55fe:	48 8b 54 24 38       	mov    0x38(%rsp),%rdx
    5603:	48 8b 3b             	mov    (%rbx),%rdi
    5606:	e9 a9 fe ff ff       	jmp    54b4 <_ZSt13__adjust_heapIN9__gnu_cxx17__normal_iteratorIPNSt7__cxx1112basic_stringIcSt11char_traitsIcESaIcEEESt6vectorIS7_SaIS7_EEEElS7_NS0_5__ops15_Iter_comp_iterIZN8argparse8ArgumentC4ILm2EJLm0ELm1EEEEOSt5arrayISt17basic_string_viewIcS5_EXT_EESt16integer_sequenceImJXspT0_EEEEUlRKT_RKT0_E_EEEvSP_SS_SS_T1_T2_.isra.0+0x484>
    560b:	0f 1f 44 00 00       	nopl   0x0(%rax,%rax,1)
    5610:	4c 89 f1             	mov    %r14,%rcx
    5613:	48 89 f5             	mov    %rsi,%rbp
    5616:	e9 c8 fb ff ff       	jmp    51e3 <_ZSt13__adjust_heapIN9__gnu_cxx17__normal_iteratorIPNSt7__cxx1112basic_stringIcSt11char_traitsIcESaIcEEESt6vectorIS7_SaIS7_EEEElS7_NS0_5__ops15_Iter_comp_iterIZN8argparse8ArgumentC4ILm2EJLm0ELm1EEEEOSt5arrayISt17basic_string_viewIcS5_EXT_EESt16integer_sequenceImJXspT0_EEEEUlRKT_RKT0_E_EEEvSP_SS_SS_T1_T2_.isra.0+0x1b3>
    561b:	0f b6 44 24 40       	movzbl 0x40(%rsp),%eax
    5620:	88 07                	mov    %al,(%rdi)
    5622:	48 8b 54 24 38       	mov    0x38(%rsp),%rdx
    5627:	48 8b 3b             	mov    (%rbx),%rdi
    562a:	e9 85 fe ff ff       	jmp    54b4 <_ZSt13__adjust_heapIN9__gnu_cxx17__normal_iteratorIPNSt7__cxx1112basic_stringIcSt11char_traitsIcESaIcEEESt6vectorIS7_SaIS7_EEEElS7_NS0_5__ops15_Iter_comp_iterIZN8argparse8ArgumentC4ILm2EJLm0ELm1EEEEOSt5arrayISt17basic_string_viewIcS5_EXT_EESt16integer_sequenceImJXspT0_EEEEUlRKT_RKT0_E_EEEvSP_SS_SS_T1_T2_.isra.0+0x484>
    562f:	48 89 03             	mov    %rax,(%rbx)
    5632:	48 89 53 08          	mov    %rdx,0x8(%rbx)
    5636:	49 8b 44 24 10       	mov    0x10(%r12),%rax
    563b:	48 89 43 10          	mov    %rax,0x10(%rbx)
    563f:	4d 89 34 24          	mov    %r14,(%r12)
    5643:	4c 89 f7             	mov    %r14,%rdi
    5646:	eb 84                	jmp    55cc <_ZSt13__adjust_heapIN9__gnu_cxx17__normal_iteratorIPNSt7__cxx1112basic_stringIcSt11char_traitsIcESaIcEEESt6vectorIS7_SaIS7_EEEElS7_NS0_5__ops15_Iter_comp_iterIZN8argparse8ArgumentC4ILm2EJLm0ELm1EEEEOSt5arrayISt17basic_string_viewIcS5_EXT_EESt16integer_sequenceImJXspT0_EEEEUlRKT_RKT0_E_EEEvSP_SS_SS_T1_T2_.isra.0+0x59c>
    5648:	48 85 d2             	test   %rdx,%rdx
    564b:	74 1e                	je     566b <_ZSt13__adjust_heapIN9__gnu_cxx17__normal_iteratorIPNSt7__cxx1112basic_stringIcSt11char_traitsIcESaIcEEESt6vectorIS7_SaIS7_EEEElS7_NS0_5__ops15_Iter_comp_iterIZN8argparse8ArgumentC4ILm2EJLm0ELm1EEEEOSt5arrayISt17basic_string_viewIcS5_EXT_EESt16integer_sequenceImJXspT0_EEEEUlRKT_RKT0_E_EEEvSP_SS_SS_T1_T2_.isra.0+0x63b>
    564d:	48 83 fa 01          	cmp    $0x1,%rdx
    5651:	74 29                	je     567c <_ZSt13__adjust_heapIN9__gnu_cxx17__normal_iteratorIPNSt7__cxx1112basic_stringIcSt11char_traitsIcESaIcEEESt6vectorIS7_SaIS7_EEEElS7_NS0_5__ops15_Iter_comp_iterIZN8argparse8ArgumentC4ILm2EJLm0ELm1EEEEOSt5arrayISt17basic_string_viewIcS5_EXT_EESt16integer_sequenceImJXspT0_EEEEUlRKT_RKT0_E_EEEvSP_SS_SS_T1_T2_.isra.0+0x64c>
    5653:	4c 89 f6             	mov    %r14,%rsi
    5656:	4c 89 0c 24          	mov    %r9,(%rsp)
    565a:	e8 e1 da ff ff       	call   3140 <memcpy@plt>
    565f:	49 8b 54 24 08       	mov    0x8(%r12),%rdx
    5664:	48 8b 3b             	mov    (%rbx),%rdi
    5667:	4c 8b 0c 24          	mov    (%rsp),%r9
    566b:	48 89 53 08          	mov    %rdx,0x8(%rbx)
    566f:	c6 04 17 00          	movb   $0x0,(%rdi,%rdx,1)
    5673:	49 8b 3c 24          	mov    (%r12),%rdi
    5677:	e9 50 ff ff ff       	jmp    55cc <_ZSt13__adjust_heapIN9__gnu_cxx17__normal_iteratorIPNSt7__cxx1112basic_stringIcSt11char_traitsIcESaIcEEESt6vectorIS7_SaIS7_EEEElS7_NS0_5__ops15_Iter_comp_iterIZN8argparse8ArgumentC4ILm2EJLm0ELm1EEEEOSt5arrayISt17basic_string_viewIcS5_EXT_EESt16integer_sequenceImJXspT0_EEEEUlRKT_RKT0_E_EEEvSP_SS_SS_T1_T2_.isra.0+0x59c>
    567c:	41 0f b6 44 24 10    	movzbl 0x10(%r12),%eax
    5682:	88 07                	mov    %al,(%rdi)
    5684:	49 8b 54 24 08       	mov    0x8(%r12),%rdx
    5689:	48 8b 3b             	mov    (%rbx),%rdi
    568c:	eb dd                	jmp    566b <_ZSt13__adjust_heapIN9__gnu_cxx17__normal_iteratorIPNSt7__cxx1112basic_stringIcSt11char_traitsIcESaIcEEESt6vectorIS7_SaIS7_EEEElS7_NS0_5__ops15_Iter_comp_iterIZN8argparse8ArgumentC4ILm2EJLm0ELm1EEEEOSt5arrayISt17basic_string_viewIcS5_EXT_EESt16integer_sequenceImJXspT0_EEEEUlRKT_RKT0_E_EEEvSP_SS_SS_T1_T2_.isra.0+0x63b>
    568e:	e8 bd da ff ff       	call   3150 <__stack_chk_fail@plt>
    5693:	48 89 eb             	mov    %rbp,%rbx
    5696:	48 c1 e3 05          	shl    $0x5,%rbx
    569a:	4c 01 fb             	add    %r15,%rbx
    569d:	e9 b8 fc ff ff       	jmp    535a <_ZSt13__adjust_heapIN9__gnu_cxx17__normal_iteratorIPNSt7__cxx1112basic_stringIcSt11char_traitsIcESaIcEEESt6vectorIS7_SaIS7_EEEElS7_NS0_5__ops15_Iter_comp_iterIZN8argparse8ArgumentC4ILm2EJLm0ELm1EEEEOSt5arrayISt17basic_string_viewIcS5_EXT_EESt16integer_sequenceImJXspT0_EEEEUlRKT_RKT0_E_EEEvSP_SS_SS_T1_T2_.isra.0+0x32a>
    56a2:	48 89 f2             	mov    %rsi,%rdx
    56a5:	e9 bc fc ff ff       	jmp    5366 <_ZSt13__adjust_heapIN9__gnu_cxx17__normal_iteratorIPNSt7__cxx1112basic_stringIcSt11char_traitsIcESaIcEEESt6vectorIS7_SaIS7_EEEElS7_NS0_5__ops15_Iter_comp_iterIZN8argparse8ArgumentC4ILm2EJLm0ELm1EEEEOSt5arrayISt17basic_string_viewIcS5_EXT_EESt16integer_sequenceImJXspT0_EEEEUlRKT_RKT0_E_EEEvSP_SS_SS_T1_T2_.isra.0+0x336>
    56aa:	66 0f 1f 44 00 00    	nopw   0x0(%rax,%rax,1)

00000000000056b0 <_ZZNSt8__detail9__variant17_Move_assign_baseILb0EJSt8functionIFSt3anyRKNSt7__cxx1112basic_stringIcSt11char_traitsIcESaIcEEEEES2_IFvSB_EEEEaSEOSG_ENUlOT_T0_E_clIRSD_St17integral_constantImLm0EEEEDaSJ_SK_.isra.0>:
    56b0:	55                   	push   %rbp
    56b1:	48 89 f5             	mov    %rsi,%rbp
    56b4:	53                   	push   %rbx
    56b5:	48 89 fb             	mov    %rdi,%rbx
    56b8:	48 83 ec 48          	sub    $0x48,%rsp
    56bc:	64 48 8b 04 25 28 00 	mov    %fs:0x28,%rax
    56c3:	00 00 
    56c5:	48 89 44 24 38       	mov    %rax,0x38(%rsp)
    56ca:	31 c0                	xor    %eax,%eax
    56cc:	80 7f 20 00          	cmpb   $0x0,0x20(%rdi)
    56d0:	75 7e                	jne    5750 <_ZZNSt8__detail9__variant17_Move_assign_baseILb0EJSt8functionIFSt3anyRKNSt7__cxx1112basic_stringIcSt11char_traitsIcESaIcEEEEES2_IFvSB_EEEEaSEOSG_ENUlOT_T0_E_clIRSD_St17integral_constantImLm0EEEEDaSJ_SK_.isra.0+0xa0>
    56d2:	48 8b 44 24 28       	mov    0x28(%rsp),%rax
    56d7:	c5 fa 7e 46 10       	vmovq  0x10(%rsi),%xmm0
    56dc:	48 8b 56 18          	mov    0x18(%rsi),%rdx
    56e0:	48 c7 46 10 00 00 00 	movq   $0x0,0x10(%rsi)
    56e7:	00 
    56e8:	48 89 46 18          	mov    %rax,0x18(%rsi)
    56ec:	c5 f9 6f 54 24 10    	vmovdqa 0x10(%rsp),%xmm2
    56f2:	c5 fa 6f 0e          	vmovdqu (%rsi),%xmm1
    56f6:	c5 fa 7f 16          	vmovdqu %xmm2,(%rsi)
    56fa:	c5 fa 6f 1f          	vmovdqu (%rdi),%xmm3
    56fe:	48 8b 47 10          	mov    0x10(%rdi),%rax
    5702:	48 8b 4f 18          	mov    0x18(%rdi),%rcx
    5706:	c4 e3 f9 22 c2 01    	vpinsrq $0x1,%rdx,%xmm0,%xmm0
    570c:	48 89 44 24 20       	mov    %rax,0x20(%rsp)
    5711:	48 89 4c 24 28       	mov    %rcx,0x28(%rsp)
    5716:	c5 f9 7f 5c 24 10    	vmovdqa %xmm3,0x10(%rsp)
    571c:	c5 fa 7f 0f          	vmovdqu %xmm1,(%rdi)
    5720:	c5 fa 7f 47 10       	vmovdqu %xmm0,0x10(%rdi)
    5725:	48 85 c0             	test   %rax,%rax
    5728:	74 0f                	je     5739 <_ZZNSt8__detail9__variant17_Move_assign_baseILb0EJSt8functionIFSt3anyRKNSt7__cxx1112basic_stringIcSt11char_traitsIcESaIcEEEEES2_IFvSB_EEEEaSEOSG_ENUlOT_T0_E_clIRSD_St17integral_constantImLm0EEEEDaSJ_SK_.isra.0+0x89>
    572a:	48 8d 7c 24 10       	lea    0x10(%rsp),%rdi
    572f:	ba 03 00 00 00       	mov    $0x3,%edx
    5734:	48 89 fe             	mov    %rdi,%rsi
    5737:	ff d0                	call   *%rax
    5739:	48 8b 44 24 38       	mov    0x38(%rsp),%rax
    573e:	64 48 2b 04 25 28 00 	sub    %fs:0x28,%rax
    5745:	00 00 
    5747:	75 5d                	jne    57a6 <_ZZNSt8__detail9__variant17_Move_assign_baseILb0EJSt8functionIFSt3anyRKNSt7__cxx1112basic_stringIcSt11char_traitsIcESaIcEEEEES2_IFvSB_EEEEaSEOSG_ENUlOT_T0_E_clIRSD_St17integral_constantImLm0EEEEDaSJ_SK_.isra.0+0xf6>
    5749:	48 83 c4 48          	add    $0x48,%rsp
    574d:	5b                   	pop    %rbx
    574e:	5d                   	pop    %rbp
    574f:	c3                   	ret    
    5750:	48 8d 7c 24 0f       	lea    0xf(%rsp),%rdi
    5755:	48 89 de             	mov    %rbx,%rsi
    5758:	e8 73 0a 00 00       	call   61d0 <_ZNSt8__detail9__variant17__gen_vtable_implINS0_12_Multi_arrayIPFvOZNS0_16_Variant_storageILb0EJSt8functionIFSt3anyRKNSt7__cxx1112basic_stringIcSt11char_traitsIcESaIcEEEEES4_IFvSD_EEEE8_M_resetEvEUlOT_E_RSt7variantIJSF_SH_EEEJEEESt16integer_sequenceImJLm1EEEE14__visit_invokeESM_SP_>
    575d:	c6 43 20 00          	movb   $0x0,0x20(%rbx)
    5761:	48 c7 43 10 00 00 00 	movq   $0x0,0x10(%rbx)
    5768:	00 
    5769:	48 8b 53 18          	mov    0x18(%rbx),%rdx
    576d:	c5 fa 6f 23          	vmovdqu (%rbx),%xmm4
    5771:	48 8b 45 10          	mov    0x10(%rbp),%rax
    5775:	48 c7 45 10 00 00 00 	movq   $0x0,0x10(%rbp)
    577c:	00 
    577d:	48 89 43 10          	mov    %rax,0x10(%rbx)
    5781:	48 8b 45 18          	mov    0x18(%rbp),%rax
    5785:	48 89 55 18          	mov    %rdx,0x18(%rbp)
    5789:	c5 fa 6f 45 00       	vmovdqu 0x0(%rbp),%xmm0
    578e:	c5 fa 7f 65 00       	vmovdqu %xmm4,0x0(%rbp)
    5793:	80 7b 20 00          	cmpb   $0x0,0x20(%rbx)
    5797:	48 89 43 18          	mov    %rax,0x18(%rbx)
    579b:	c5 fa 7f 03          	vmovdqu %xmm0,(%rbx)
    579f:	74 98                	je     5739 <_ZZNSt8__detail9__variant17_Move_assign_baseILb0EJSt8functionIFSt3anyRKNSt7__cxx1112basic_stringIcSt11char_traitsIcESaIcEEEEES2_IFvSB_EEEEaSEOSG_ENUlOT_T0_E_clIRSD_St17integral_constantImLm0EEEEDaSJ_SK_.isra.0+0x89>
    57a1:	e9 9a dc ff ff       	jmp    3440 <_ZZNSt8__detail9__variant17_Move_assign_baseILb0EJSt8functionIFSt3anyRKNSt7__cxx1112basic_stringIcSt11char_traitsIcESaIcEEEEES2_IFvSB_EEEEaSEOSG_ENUlOT_T0_E_clIRSD_St17integral_constantImLm0EEEEDaSJ_SK_.isra.0.cold>
    57a6:	e8 a5 d9 ff ff       	call   3150 <__stack_chk_fail@plt>
    57ab:	90                   	nop
    57ac:	0f 1f 40 00          	nopl   0x0(%rax)

00000000000057b0 <_ZNSt7variantIJSt8functionIFSt3anyRKNSt7__cxx1112basic_stringIcSt11char_traitsIcESaIcEEEEES0_IFvS9_EEEE7emplaceILm0EJN8argparse7details12parse_numberIiLi0EEEEEENSt9enable_ifIX18is_constructible_vINSt19variant_alternativeIXT_ESE_E4typeEDpT0_EERSN_E4typeEDpOSO_.isra.0>:
    57b0:	55                   	push   %rbp
    57b1:	48 8d 0d f8 0b 00 00 	lea    0xbf8(%rip),%rcx        # 63b0 <_ZNSt17_Function_handlerIFSt3anyRKNSt7__cxx1112basic_stringIcSt11char_traitsIcESaIcEEEEN8argparse7details12parse_numberIiLi0EEEE10_M_managerERSt9_Any_dataRKSF_St18_Manager_operation>
    57b8:	c4 e1 f9 6e c1       	vmovq  %rcx,%xmm0
    57bd:	53                   	push   %rbx
    57be:	48 89 fb             	mov    %rdi,%rbx
    57c1:	48 83 ec 48          	sub    $0x48,%rsp
    57c5:	64 48 8b 04 25 28 00 	mov    %fs:0x28,%rax
    57cc:	00 00 
    57ce:	48 89 44 24 38       	mov    %rax,0x38(%rsp)
    57d3:	48 8d 05 36 97 00 00 	lea    0x9736(%rip),%rax        # ef10 <_ZNSt17_Function_handlerIFSt3anyRKNSt7__cxx1112basic_stringIcSt11char_traitsIcESaIcEEEEN8argparse7details12parse_numberIiLi0EEEE9_M_invokeERKSt9_Any_dataS8_>
    57da:	48 8d 6c 24 10       	lea    0x10(%rsp),%rbp
    57df:	48 89 ee             	mov    %rbp,%rsi
    57e2:	c6 44 24 30 00       	movb   $0x0,0x30(%rsp)
    57e7:	c4 e3 f9 22 c0 01    	vpinsrq $0x1,%rax,%xmm0,%xmm0
    57ed:	c5 f9 7f 44 24 20    	vmovdqa %xmm0,0x20(%rsp)
    57f3:	e8 b8 fe ff ff       	call   56b0 <_ZZNSt8__detail9__variant17_Move_assign_baseILb0EJSt8functionIFSt3anyRKNSt7__cxx1112basic_stringIcSt11char_traitsIcESaIcEEEEES2_IFvSB_EEEEaSEOSG_ENUlOT_T0_E_clIRSD_St17integral_constantImLm0EEEEDaSJ_SK_.isra.0>
    57f8:	0f b6 54 24 30       	movzbl 0x30(%rsp),%edx
    57fd:	48 8d 7c 24 0f       	lea    0xf(%rsp),%rdi
    5802:	48 89 ee             	mov    %rbp,%rsi
    5805:	48 8d 05 84 e0 00 00 	lea    0xe084(%rip),%rax        # 13890 <_ZNSt8__detail9__variant12__gen_vtableIvOZNS0_16_Variant_storageILb0EJSt8functionIFSt3anyRKNSt7__cxx1112basic_stringIcSt11char_traitsIcESaIcEEEEES3_IFvSC_EEEE8_M_resetEvEUlOT_E_JRSt7variantIJSE_SG_EEEE9_S_vtableE>
    580c:	ff 14 d0             	call   *(%rax,%rdx,8)
    580f:	80 7b 20 00          	cmpb   $0x0,0x20(%rbx)
    5813:	0f 85 2f dc ff ff    	jne    3448 <_ZNSt7variantIJSt8functionIFSt3anyRKNSt7__cxx1112basic_stringIcSt11char_traitsIcESaIcEEEEES0_IFvS9_EEEE7emplaceILm0EJN8argparse7details12parse_numberIiLi0EEEEEENSt9enable_ifIX18is_constructible_vINSt19variant_alternativeIXT_ESE_E4typeEDpT0_EERSN_E4typeEDpOSO_.isra.0.cold>
    5819:	48 8b 44 24 38       	mov    0x38(%rsp),%rax
    581e:	64 48 2b 04 25 28 00 	sub    %fs:0x28,%rax
    5825:	00 00 
    5827:	75 07                	jne    5830 <_ZNSt7variantIJSt8functionIFSt3anyRKNSt7__cxx1112basic_stringIcSt11char_traitsIcESaIcEEEEES0_IFvS9_EEEE7emplaceILm0EJN8argparse7details12parse_numberIiLi0EEEEEENSt9enable_ifIX18is_constructible_vINSt19variant_alternativeIXT_ESE_E4typeEDpT0_EERSN_E4typeEDpOSO_.isra.0+0x80>
    5829:	48 83 c4 48          	add    $0x48,%rsp
    582d:	5b                   	pop    %rbx
    582e:	5d                   	pop    %rbp
    582f:	c3                   	ret    
    5830:	e8 1b d9 ff ff       	call   3150 <__stack_chk_fail@plt>
    5835:	66 66 2e 0f 1f 84 00 	data16 cs nopw 0x0(%rax,%rax,1)
    583c:	00 00 00 00 

0000000000005840 <_ZN8argparselsERSoRKNS_8ArgumentE.isra.0>:
    5840:	55                   	push   %rbp
    5841:	48 89 e5             	mov    %rsp,%rbp
    5844:	41 57                	push   %r15
    5846:	49 89 f7             	mov    %rsi,%r15
    5849:	41 56                	push   %r14
    584b:	49 89 fe             	mov    %rdi,%r14
    584e:	41 55                	push   %r13
    5850:	41 54                	push   %r12
    5852:	53                   	push   %rbx
    5853:	48 83 e4 e0          	and    $0xffffffffffffffe0,%rsp
    5857:	48 81 ec e0 01 00 00 	sub    $0x1e0,%rsp
    585e:	64 48 8b 04 25 28 00 	mov    %fs:0x28,%rax
    5865:	00 00 
    5867:	48 89 84 24 d8 01 00 	mov    %rax,0x1d8(%rsp)
    586e:	00 
    586f:	31 c0                	xor    %eax,%eax
    5871:	48 8d 84 24 c0 00 00 	lea    0xc0(%rsp),%rax
    5878:	00 
    5879:	48 8d 5c 24 40       	lea    0x40(%rsp),%rbx
    587e:	48 89 c7             	mov    %rax,%rdi
    5881:	48 89 1c 24          	mov    %rbx,(%rsp)
    5885:	48 89 44 24 18       	mov    %rax,0x18(%rsp)
    588a:	e8 71 d8 ff ff       	call   3100 <_ZNSt8ios_baseC2Ev@plt>
    588f:	31 c0                	xor    %eax,%eax
    5891:	66 89 84 24 a0 01 00 	mov    %ax,0x1a0(%rsp)
    5898:	00 
    5899:	48 8d 0d 48 e0 00 00 	lea    0xe048(%rip),%rcx        # 138e8 <_ZTVSt9basic_iosIcSt11char_traitsIcEE+0x10>
    58a0:	48 89 8c 24 c0 00 00 	mov    %rcx,0xc0(%rsp)
    58a7:	00 
    58a8:	c5 f9 ef c0          	vpxor  %xmm0,%xmm0,%xmm0
    58ac:	48 8b 0d 1d e1 00 00 	mov    0xe11d(%rip),%rcx        # 139d0 <_ZTTNSt7__cxx1118basic_stringstreamIcSt11char_traitsIcESaIcEEE+0x10>
    58b3:	c5 fe 7f 84 24 a8 01 	vmovdqu %ymm0,0x1a8(%rsp)
    58ba:	00 00 
    58bc:	48 8b 41 e8          	mov    -0x18(%rcx),%rax
    58c0:	48 89 4c 24 40       	mov    %rcx,0x40(%rsp)
    58c5:	48 8b 0d 0c e1 00 00 	mov    0xe10c(%rip),%rcx        # 139d8 <_ZTTNSt7__cxx1118basic_stringstreamIcSt11char_traitsIcESaIcEEE+0x18>
    58cc:	48 c7 84 24 98 01 00 	movq   $0x0,0x198(%rsp)
    58d3:	00 00 00 00 00 
    58d8:	48 89 4c 04 40       	mov    %rcx,0x40(%rsp,%rax,1)
    58dd:	48 c7 44 24 48 00 00 	movq   $0x0,0x48(%rsp)
    58e4:	00 00 
    58e6:	48 8b 0d e3 e0 00 00 	mov    0xe0e3(%rip),%rcx        # 139d0 <_ZTTNSt7__cxx1118basic_stringstreamIcSt11char_traitsIcESaIcEEE+0x10>
    58ed:	31 f6                	xor    %esi,%esi
    58ef:	48 03 59 e8          	add    -0x18(%rcx),%rbx
    58f3:	48 89 df             	mov    %rbx,%rdi
    58f6:	c5 f8 77             	vzeroupper 
    58f9:	e8 32 d7 ff ff       	call   3030 <_ZNSt9basic_iosIcSt11char_traitsIcEE4initEPSt15basic_streambufIcS1_E@plt>
    58fe:	48 8b 0d db e0 00 00 	mov    0xe0db(%rip),%rcx        # 139e0 <_ZTTNSt7__cxx1118basic_stringstreamIcSt11char_traitsIcESaIcEEE+0x20>
    5905:	4c 8d 6c 24 50       	lea    0x50(%rsp),%r13
    590a:	48 89 4c 24 50       	mov    %rcx,0x50(%rsp)
    590f:	48 8b 49 e8          	mov    -0x18(%rcx),%rcx
    5913:	31 f6                	xor    %esi,%esi
    5915:	4c 01 e9             	add    %r13,%rcx
    5918:	48 89 cf             	mov    %rcx,%rdi
    591b:	48 8b 0d c6 e0 00 00 	mov    0xe0c6(%rip),%rcx        # 139e8 <_ZTTNSt7__cxx1118basic_stringstreamIcSt11char_traitsIcESaIcEEE+0x28>
    5922:	48 89 0f             	mov    %rcx,(%rdi)
    5925:	e8 06 d7 ff ff       	call   3030 <_ZNSt9basic_iosIcSt11char_traitsIcEE4initEPSt15basic_streambufIcS1_E@plt>
    592a:	48 8b 0d 97 e0 00 00 	mov    0xe097(%rip),%rcx        # 139c8 <_ZTTNSt7__cxx1118basic_stringstreamIcSt11char_traitsIcESaIcEEE+0x8>
    5931:	48 8b 35 b8 e0 00 00 	mov    0xe0b8(%rip),%rsi        # 139f0 <_ZTTNSt7__cxx1118basic_stringstreamIcSt11char_traitsIcESaIcEEE+0x30>
    5938:	48 8b 41 e8          	mov    -0x18(%rcx),%rax
    593c:	48 8d 0d 75 e1 00 00 	lea    0xe175(%rip),%rcx        # 13ab8 <_ZTVNSt7__cxx1118basic_stringstreamIcSt11char_traitsIcESaIcEEE+0x18>
    5943:	48 89 74 04 40       	mov    %rsi,0x40(%rsp,%rax,1)
    5948:	48 8d 71 50          	lea    0x50(%rcx),%rsi
    594c:	48 89 4c 24 40       	mov    %rcx,0x40(%rsp)
    5951:	48 83 c1 28          	add    $0x28,%rcx
    5955:	48 89 4c 24 50       	mov    %rcx,0x50(%rsp)
    595a:	48 8d 8c 24 90 00 00 	lea    0x90(%rsp),%rcx
    5961:	00 
    5962:	48 89 cf             	mov    %rcx,%rdi
    5965:	48 8d 1d c4 df 00 00 	lea    0xdfc4(%rip),%rbx        # 13930 <_ZTVSt15basic_streambufIcSt11char_traitsIcEE+0x10>
    596c:	48 89 b4 24 c0 00 00 	mov    %rsi,0xc0(%rsp)
    5973:	00 
    5974:	48 89 4c 24 08       	mov    %rcx,0x8(%rsp)
    5979:	48 89 5c 24 58       	mov    %rbx,0x58(%rsp)
    597e:	48 c7 44 24 60 00 00 	movq   $0x0,0x60(%rsp)
    5985:	00 00 
    5987:	48 c7 44 24 68 00 00 	movq   $0x0,0x68(%rsp)
    598e:	00 00 
    5990:	48 c7 44 24 70 00 00 	movq   $0x0,0x70(%rsp)
    5997:	00 00 
    5999:	48 c7 44 24 78 00 00 	movq   $0x0,0x78(%rsp)
    59a0:	00 00 
    59a2:	48 c7 84 24 80 00 00 	movq   $0x0,0x80(%rsp)
    59a9:	00 00 00 00 00 
    59ae:	48 c7 84 24 88 00 00 	movq   $0x0,0x88(%rsp)
    59b5:	00 00 00 00 00 
    59ba:	4c 8d 64 24 58       	lea    0x58(%rsp),%r12
    59bf:	e8 4c d7 ff ff       	call   3110 <_ZNSt6localeC1Ev@plt>
    59c4:	48 8d 35 55 e0 00 00 	lea    0xe055(%rip),%rsi        # 13a20 <_ZTVNSt7__cxx1115basic_stringbufIcSt11char_traitsIcESaIcEEE+0x10>
    59cb:	48 8b 7c 24 18       	mov    0x18(%rsp),%rdi
    59d0:	48 8d 8c 24 b0 00 00 	lea    0xb0(%rsp),%rcx
    59d7:	00 
    59d8:	48 89 74 24 58       	mov    %rsi,0x58(%rsp)
    59dd:	4c 89 e6             	mov    %r12,%rsi
    59e0:	c7 84 24 98 00 00 00 	movl   $0x18,0x98(%rsp)
    59e7:	18 00 00 00 
    59eb:	48 89 4c 24 10       	mov    %rcx,0x10(%rsp)
    59f0:	48 89 8c 24 a0 00 00 	mov    %rcx,0xa0(%rsp)
    59f7:	00 
    59f8:	48 c7 84 24 a8 00 00 	movq   $0x0,0xa8(%rsp)
    59ff:	00 00 00 00 00 
    5a04:	c6 84 24 b0 00 00 00 	movb   $0x0,0xb0(%rsp)
    5a0b:	00 
    5a0c:	e8 1f d6 ff ff       	call   3030 <_ZNSt9basic_iosIcSt11char_traitsIcEE4initEPSt15basic_streambufIcS1_E@plt>
    5a11:	49 8b 1f             	mov    (%r15),%rbx
    5a14:	49 8b 47 08          	mov    0x8(%r15),%rax
    5a18:	48 29 d8             	sub    %rbx,%rax
    5a1b:	49 89 c4             	mov    %rax,%r12
    5a1e:	49 c1 fc 05          	sar    $0x5,%r12
    5a22:	48 85 c0             	test   %rax,%rax
    5a25:	7e 35                	jle    5a5c <_ZN8argparselsERSoRKNS_8ArgumentE.isra.0+0x21c>
    5a27:	66 0f 1f 84 00 00 00 	nopw   0x0(%rax,%rax,1)
    5a2e:	00 00 
    5a30:	48 8b 53 08          	mov    0x8(%rbx),%rdx
    5a34:	48 8b 33             	mov    (%rbx),%rsi
    5a37:	4c 89 ef             	mov    %r13,%rdi
    5a3a:	e8 61 d9 ff ff       	call   33a0 <_ZSt16__ostream_insertIcSt11char_traitsIcEERSt13basic_ostreamIT_T0_ES6_PKS3_l@plt>
    5a3f:	ba 01 00 00 00       	mov    $0x1,%edx
    5a44:	48 8d 35 3e a7 00 00 	lea    0xa73e(%rip),%rsi        # 10189 <_fini+0xf68>
    5a4b:	4c 89 ef             	mov    %r13,%rdi
    5a4e:	e8 4d d9 ff ff       	call   33a0 <_ZSt16__ostream_insertIcSt11char_traitsIcEERSt13basic_ostreamIT_T0_ES6_PKS3_l@plt>
    5a53:	48 83 c3 20          	add    $0x20,%rbx
    5a57:	49 ff cc             	dec    %r12
    5a5a:	75 d4                	jne    5a30 <_ZN8argparselsERSoRKNS_8ArgumentE.isra.0+0x1f0>
    5a5c:	48 8b 84 24 80 00 00 	mov    0x80(%rsp),%rax
    5a63:	00 
    5a64:	48 8d 5c 24 30       	lea    0x30(%rsp),%rbx
    5a69:	48 89 5c 24 20       	mov    %rbx,0x20(%rsp)
    5a6e:	48 c7 44 24 28 00 00 	movq   $0x0,0x28(%rsp)
    5a75:	00 00 
    5a77:	c6 44 24 30 00       	movb   $0x0,0x30(%rsp)
    5a7c:	48 8d 7c 24 20       	lea    0x20(%rsp),%rdi
    5a81:	48 85 c0             	test   %rax,%rax
    5a84:	0f 84 46 02 00 00    	je     5cd0 <_ZN8argparselsERSoRKNS_8ArgumentE.isra.0+0x490>
    5a8a:	4c 8b 44 24 70       	mov    0x70(%rsp),%r8
    5a8f:	48 8b 4c 24 78       	mov    0x78(%rsp),%rcx
    5a94:	4c 39 c0             	cmp    %r8,%rax
    5a97:	0f 87 d3 01 00 00    	ja     5c70 <_ZN8argparselsERSoRKNS_8ArgumentE.isra.0+0x430>
    5a9d:	49 29 c8             	sub    %rcx,%r8
    5aa0:	31 d2                	xor    %edx,%edx
    5aa2:	31 f6                	xor    %esi,%esi
    5aa4:	e8 07 d7 ff ff       	call   31b0 <_ZNSt7__cxx1112basic_stringIcSt11char_traitsIcESaIcEE10_M_replaceEmmPKcm@plt>
    5aa9:	48 8b 54 24 28       	mov    0x28(%rsp),%rdx
    5aae:	48 8b 74 24 20       	mov    0x20(%rsp),%rsi
    5ab3:	4c 89 f7             	mov    %r14,%rdi
    5ab6:	e8 e5 d8 ff ff       	call   33a0 <_ZSt16__ostream_insertIcSt11char_traitsIcEERSt13basic_ostreamIT_T0_ES6_PKS3_l@plt>
    5abb:	ba 01 00 00 00       	mov    $0x1,%edx
    5ac0:	48 8d 35 d2 a6 00 00 	lea    0xa6d2(%rip),%rsi        # 10199 <_fini+0xf78>
    5ac7:	48 89 c7             	mov    %rax,%rdi
    5aca:	49 89 c4             	mov    %rax,%r12
    5acd:	e8 ce d8 ff ff       	call   33a0 <_ZSt16__ostream_insertIcSt11char_traitsIcEERSt13basic_ostreamIT_T0_ES6_PKS3_l@plt>
    5ad2:	49 8b 57 30          	mov    0x30(%r15),%rdx
    5ad6:	49 8b 77 28          	mov    0x28(%r15),%rsi
    5ada:	4c 89 e7             	mov    %r12,%rdi
    5add:	e8 be d8 ff ff       	call   33a0 <_ZSt16__ostream_insertIcSt11char_traitsIcEERSt13basic_ostreamIT_T0_ES6_PKS3_l@plt>
    5ae2:	48 8b 7c 24 20       	mov    0x20(%rsp),%rdi
    5ae7:	48 39 df             	cmp    %rbx,%rdi
    5aea:	74 0e                	je     5afa <_ZN8argparselsERSoRKNS_8ArgumentE.isra.0+0x2ba>
    5aec:	48 8b 44 24 30       	mov    0x30(%rsp),%rax
    5af1:	48 8d 70 01          	lea    0x1(%rax),%rsi
    5af5:	e8 26 d8 ff ff       	call   3320 <_ZdlPvm@plt>
    5afa:	49 83 7f 48 00       	cmpq   $0x0,0x48(%r15)
    5aff:	0f 84 83 01 00 00    	je     5c88 <_ZN8argparselsERSoRKNS_8ArgumentE.isra.0+0x448>
    5b05:	49 83 7f 30 00       	cmpq   $0x0,0x30(%r15)
    5b0a:	74 14                	je     5b20 <_ZN8argparselsERSoRKNS_8ArgumentE.isra.0+0x2e0>
    5b0c:	ba 01 00 00 00       	mov    $0x1,%edx
    5b11:	48 8d 35 71 a6 00 00 	lea    0xa671(%rip),%rsi        # 10189 <_fini+0xf68>
    5b18:	4c 89 f7             	mov    %r14,%rdi
    5b1b:	e8 80 d8 ff ff       	call   33a0 <_ZSt16__ostream_insertIcSt11char_traitsIcEERSt13basic_ostreamIT_T0_ES6_PKS3_l@plt>
    5b20:	ba 0a 00 00 00       	mov    $0xa,%edx
    5b25:	48 8d 35 6f a6 00 00 	lea    0xa66f(%rip),%rsi        # 1019b <_fini+0xf7a>
    5b2c:	4c 89 f7             	mov    %r14,%rdi
    5b2f:	e8 6c d8 ff ff       	call   33a0 <_ZSt16__ostream_insertIcSt11char_traitsIcEERSt13basic_ostreamIT_T0_ES6_PKS3_l@plt>
    5b34:	49 8b 57 60          	mov    0x60(%r15),%rdx
    5b38:	49 8b 77 58          	mov    0x58(%r15),%rsi
    5b3c:	4c 89 f7             	mov    %r14,%rdi
    5b3f:	e8 5c d8 ff ff       	call   33a0 <_ZSt16__ostream_insertIcSt11char_traitsIcEERSt13basic_ostreamIT_T0_ES6_PKS3_l@plt>
    5b44:	48 89 c7             	mov    %rax,%rdi
    5b47:	ba 01 00 00 00       	mov    $0x1,%edx
    5b4c:	48 8d 35 5c a6 00 00 	lea    0xa65c(%rip),%rsi        # 101af <_fini+0xf8e>
    5b53:	e8 48 d8 ff ff       	call   33a0 <_ZSt16__ostream_insertIcSt11char_traitsIcEERSt13basic_ostreamIT_T0_ES6_PKS3_l@plt>
    5b58:	ba 01 00 00 00       	mov    $0x1,%edx
    5b5d:	48 8d 35 62 a6 00 00 	lea    0xa662(%rip),%rsi        # 101c6 <_fini+0xfa5>
    5b64:	4c 89 f7             	mov    %r14,%rdi
    5b67:	e8 34 d8 ff ff       	call   33a0 <_ZSt16__ostream_insertIcSt11char_traitsIcEERSt13basic_ostreamIT_T0_ES6_PKS3_l@plt>
    5b6c:	48 8d 05 45 df 00 00 	lea    0xdf45(%rip),%rax        # 13ab8 <_ZTVNSt7__cxx1118basic_stringstreamIcSt11char_traitsIcESaIcEEE+0x18>
    5b73:	48 89 44 24 40       	mov    %rax,0x40(%rsp)
    5b78:	c5 fa 7e 0d 28 e0 00 	vmovq  0xe028(%rip),%xmm1        # 13ba8 <_ZTVNSt7__cxx1118basic_stringstreamIcSt11char_traitsIcESaIcEEE@@Base+0x108>
    5b7f:	00 
    5b80:	48 83 c0 50          	add    $0x50,%rax
    5b84:	48 89 84 24 c0 00 00 	mov    %rax,0xc0(%rsp)
    5b8b:	00 
    5b8c:	48 8b bc 24 a0 00 00 	mov    0xa0(%rsp),%rdi
    5b93:	00 
    5b94:	48 8d 05 85 de 00 00 	lea    0xde85(%rip),%rax        # 13a20 <_ZTVNSt7__cxx1115basic_stringbufIcSt11char_traitsIcESaIcEEE+0x10>
    5b9b:	c4 e3 f1 22 c0 01    	vpinsrq $0x1,%rax,%xmm1,%xmm0
    5ba1:	c5 f9 7f 44 24 50    	vmovdqa %xmm0,0x50(%rsp)
    5ba7:	48 3b 7c 24 10       	cmp    0x10(%rsp),%rdi
    5bac:	74 11                	je     5bbf <_ZN8argparselsERSoRKNS_8ArgumentE.isra.0+0x37f>
    5bae:	48 8b 84 24 b0 00 00 	mov    0xb0(%rsp),%rax
    5bb5:	00 
    5bb6:	48 8d 70 01          	lea    0x1(%rax),%rsi
    5bba:	e8 61 d7 ff ff       	call   3320 <_ZdlPvm@plt>
    5bbf:	48 8b 7c 24 08       	mov    0x8(%rsp),%rdi
    5bc4:	48 8d 05 65 dd 00 00 	lea    0xdd65(%rip),%rax        # 13930 <_ZTVSt15basic_streambufIcSt11char_traitsIcEE+0x10>
    5bcb:	48 89 44 24 58       	mov    %rax,0x58(%rsp)
    5bd0:	e8 5b d6 ff ff       	call   3230 <_ZNSt6localeD1Ev@plt>
    5bd5:	48 8b 05 ec dd 00 00 	mov    0xddec(%rip),%rax        # 139c8 <_ZTTNSt7__cxx1118basic_stringstreamIcSt11char_traitsIcESaIcEEE+0x8>
    5bdc:	48 8b 15 0d de 00 00 	mov    0xde0d(%rip),%rdx        # 139f0 <_ZTTNSt7__cxx1118basic_stringstreamIcSt11char_traitsIcESaIcEEE+0x30>
    5be3:	48 8b 40 e8          	mov    -0x18(%rax),%rax
    5be7:	48 8b 0d fa dd 00 00 	mov    0xddfa(%rip),%rcx        # 139e8 <_ZTTNSt7__cxx1118basic_stringstreamIcSt11char_traitsIcESaIcEEE+0x28>
    5bee:	48 89 54 04 40       	mov    %rdx,0x40(%rsp,%rax,1)
    5bf3:	48 8b 05 e6 dd 00 00 	mov    0xdde6(%rip),%rax        # 139e0 <_ZTTNSt7__cxx1118basic_stringstreamIcSt11char_traitsIcESaIcEEE+0x20>
    5bfa:	48 8b 1d d7 dd 00 00 	mov    0xddd7(%rip),%rbx        # 139d8 <_ZTTNSt7__cxx1118basic_stringstreamIcSt11char_traitsIcESaIcEEE+0x18>
    5c01:	48 89 44 24 50       	mov    %rax,0x50(%rsp)
    5c06:	48 8b 40 e8          	mov    -0x18(%rax),%rax
    5c0a:	48 8b 7c 24 18       	mov    0x18(%rsp),%rdi
    5c0f:	48 89 4c 04 50       	mov    %rcx,0x50(%rsp,%rax,1)
    5c14:	48 8b 05 b5 dd 00 00 	mov    0xddb5(%rip),%rax        # 139d0 <_ZTTNSt7__cxx1118basic_stringstreamIcSt11char_traitsIcESaIcEEE+0x10>
    5c1b:	48 89 44 24 40       	mov    %rax,0x40(%rsp)
    5c20:	48 8b 40 e8          	mov    -0x18(%rax),%rax
    5c24:	48 89 5c 04 40       	mov    %rbx,0x40(%rsp,%rax,1)
    5c29:	48 8d 05 b8 dc 00 00 	lea    0xdcb8(%rip),%rax        # 138e8 <_ZTVSt9basic_iosIcSt11char_traitsIcEE+0x10>
    5c30:	48 89 84 24 c0 00 00 	mov    %rax,0xc0(%rsp)
    5c37:	00 
    5c38:	48 c7 44 24 48 00 00 	movq   $0x0,0x48(%rsp)
    5c3f:	00 00 
    5c41:	e8 5a d4 ff ff       	call   30a0 <_ZNSt8ios_baseD2Ev@plt>
    5c46:	48 8b 84 24 d8 01 00 	mov    0x1d8(%rsp),%rax
    5c4d:	00 
    5c4e:	64 48 2b 04 25 28 00 	sub    %fs:0x28,%rax
    5c55:	00 00 
    5c57:	0f 85 85 00 00 00    	jne    5ce2 <_ZN8argparselsERSoRKNS_8ArgumentE.isra.0+0x4a2>
    5c5d:	48 8d 65 d8          	lea    -0x28(%rbp),%rsp
    5c61:	5b                   	pop    %rbx
    5c62:	41 5c                	pop    %r12
    5c64:	41 5d                	pop    %r13
    5c66:	41 5e                	pop    %r14
    5c68:	41 5f                	pop    %r15
    5c6a:	5d                   	pop    %rbp
    5c6b:	c3                   	ret    
    5c6c:	0f 1f 40 00          	nopl   0x0(%rax)
    5c70:	48 29 c8             	sub    %rcx,%rax
    5c73:	49 89 c0             	mov    %rax,%r8
    5c76:	31 d2                	xor    %edx,%edx
    5c78:	31 f6                	xor    %esi,%esi
    5c7a:	e8 31 d5 ff ff       	call   31b0 <_ZNSt7__cxx1112basic_stringIcSt11char_traitsIcESaIcEE10_M_replaceEmmPKcm@plt>
    5c7f:	e9 25 fe ff ff       	jmp    5aa9 <_ZN8argparselsERSoRKNS_8ArgumentE.isra.0+0x269>
    5c84:	0f 1f 40 00          	nopl   0x0(%rax)
    5c88:	41 f6 87 d9 00 00 00 	testb  $0x2,0xd9(%r15)
    5c8f:	02 
    5c90:	0f 84 c2 fe ff ff    	je     5b58 <_ZN8argparselsERSoRKNS_8ArgumentE.isra.0+0x318>
    5c96:	49 83 7f 30 00       	cmpq   $0x0,0x30(%r15)
    5c9b:	74 14                	je     5cb1 <_ZN8argparselsERSoRKNS_8ArgumentE.isra.0+0x471>
    5c9d:	ba 01 00 00 00       	mov    $0x1,%edx
    5ca2:	48 8d 35 e0 a4 00 00 	lea    0xa4e0(%rip),%rsi        # 10189 <_fini+0xf68>
    5ca9:	4c 89 f7             	mov    %r14,%rdi
    5cac:	e8 ef d6 ff ff       	call   33a0 <_ZSt16__ostream_insertIcSt11char_traitsIcEERSt13basic_ostreamIT_T0_ES6_PKS3_l@plt>
    5cb1:	ba 0a 00 00 00       	mov    $0xa,%edx
    5cb6:	48 8d 35 e9 a4 00 00 	lea    0xa4e9(%rip),%rsi        # 101a6 <_fini+0xf85>
    5cbd:	4c 89 f7             	mov    %r14,%rdi
    5cc0:	e8 db d6 ff ff       	call   33a0 <_ZSt16__ostream_insertIcSt11char_traitsIcEERSt13basic_ostreamIT_T0_ES6_PKS3_l@plt>
    5cc5:	e9 8e fe ff ff       	jmp    5b58 <_ZN8argparselsERSoRKNS_8ArgumentE.isra.0+0x318>
    5cca:	66 0f 1f 44 00 00    	nopw   0x0(%rax,%rax,1)
    5cd0:	48 8d b4 24 a0 00 00 	lea    0xa0(%rsp),%rsi
    5cd7:	00 
    5cd8:	e8 c3 d4 ff ff       	call   31a0 <_ZNSt7__cxx1112basic_stringIcSt11char_traitsIcESaIcEE9_M_assignERKS4_@plt>
    5cdd:	e9 c7 fd ff ff       	jmp    5aa9 <_ZN8argparselsERSoRKNS_8ArgumentE.isra.0+0x269>
    5ce2:	e8 69 d4 ff ff       	call   3150 <__stack_chk_fail@plt>
    5ce7:	48 89 c3             	mov    %rax,%rbx
    5cea:	c5 f8 77             	vzeroupper 
    5ced:	e9 85 d7 ff ff       	jmp    3477 <_ZN8argparselsERSoRKNS_8ArgumentE.isra.0.cold+0x28>
    5cf2:	49 89 c4             	mov    %rax,%r12
    5cf5:	e9 9e d7 ff ff       	jmp    3498 <_ZN8argparselsERSoRKNS_8ArgumentE.isra.0.cold+0x49>
    5cfa:	49 89 c4             	mov    %rax,%r12
    5cfd:	e9 c6 d7 ff ff       	jmp    34c8 <_ZN8argparselsERSoRKNS_8ArgumentE.isra.0.cold+0x79>
    5d02:	49 89 c4             	mov    %rax,%r12
    5d05:	c5 f8 77             	vzeroupper 
    5d08:	e9 aa d7 ff ff       	jmp    34b7 <_ZN8argparselsERSoRKNS_8ArgumentE.isra.0.cold+0x68>
    5d0d:	48 89 c3             	mov    %rax,%rbx
    5d10:	e9 d5 d7 ff ff       	jmp    34ea <_ZN8argparselsERSoRKNS_8ArgumentE.isra.0.cold+0x9b>
    5d15:	48 89 c3             	mov    %rax,%rbx
    5d18:	e9 32 d7 ff ff       	jmp    344f <_ZN8argparselsERSoRKNS_8ArgumentE.isra.0.cold>
    5d1d:	0f 1f 00             	nopl   (%rax)

0000000000005d20 <_ZN8argparselsERSoRKNS_14ArgumentParserE.isra.0>:
    5d20:	55                   	push   %rbp
    5d21:	ba 07 00 00 00       	mov    $0x7,%edx
    5d26:	48 89 e5             	mov    %rsp,%rbp
    5d29:	41 57                	push   %r15
    5d2b:	41 56                	push   %r14
    5d2d:	49 89 fe             	mov    %rdi,%r14
    5d30:	41 55                	push   %r13
    5d32:	41 54                	push   %r12
    5d34:	49 89 f4             	mov    %rsi,%r12
    5d37:	48 8d 35 73 a4 00 00 	lea    0xa473(%rip),%rsi        # 101b1 <_fini+0xf90>
    5d3e:	53                   	push   %rbx
    5d3f:	48 8b 07             	mov    (%rdi),%rax
    5d42:	48 83 e4 e0          	and    $0xffffffffffffffe0,%rsp
    5d46:	48 8b 58 e8          	mov    -0x18(%rax),%rbx
    5d4a:	48 01 fb             	add    %rdi,%rbx
    5d4d:	83 4b 18 20          	orl    $0x20,0x18(%rbx)
    5d51:	e8 4a d6 ff ff       	call   33a0 <_ZSt16__ostream_insertIcSt11char_traitsIcEERSt13basic_ostreamIT_T0_ES6_PKS3_l@plt>
    5d56:	49 8b 54 24 08       	mov    0x8(%r12),%rdx
    5d5b:	49 8b 34 24          	mov    (%r12),%rsi
    5d5f:	4c 89 f7             	mov    %r14,%rdi
    5d62:	e8 39 d6 ff ff       	call   33a0 <_ZSt16__ostream_insertIcSt11char_traitsIcEERSt13basic_ostreamIT_T0_ES6_PKS3_l@plt>
    5d67:	48 89 c7             	mov    %rax,%rdi
    5d6a:	48 8d 35 48 a4 00 00 	lea    0xa448(%rip),%rsi        # 101b9 <_fini+0xf98>
    5d71:	e8 aa d3 ff ff       	call   3120 <_ZStlsISt11char_traitsIcEERSt13basic_ostreamIcT_ES5_PKc@plt>
    5d76:	49 8b 9c 24 e0 00 00 	mov    0xe0(%r12),%rbx
    5d7d:	00 
    5d7e:	48 85 db             	test   %rbx,%rbx
    5d81:	0f 84 19 01 00 00    	je     5ea0 <_ZN8argparselsERSoRKNS_14ArgumentParserE.isra.0+0x180>
    5d87:	49 8b bc 24 d0 00 00 	mov    0xd0(%r12),%rdi
    5d8e:	00 
    5d8f:	4d 8d ac 24 c0 00 00 	lea    0xc0(%r12),%r13
    5d96:	00 
    5d97:	31 db                	xor    %ebx,%ebx
    5d99:	4c 39 ef             	cmp    %r13,%rdi
    5d9c:	0f 84 fe 00 00 00    	je     5ea0 <_ZN8argparselsERSoRKNS_14ArgumentParserE.isra.0+0x180>
    5da2:	c5 fd 6f 15 f6 a9 00 	vmovdqa 0xa9f6(%rip),%ymm2        # 107a0 <_ZTSN8argparse7details12parse_numberIfLNS0_12chars_formatE3EEE+0x40>
    5da9:	00 
    5daa:	c5 fd 6f 25 0e aa 00 	vmovdqa 0xaa0e(%rip),%ymm4        # 107c0 <_ZTSN8argparse7details12parse_numberIfLNS0_12chars_formatE3EEE+0x60>
    5db1:	00 
    5db2:	66 0f 1f 44 00 00    	nopw   0x0(%rax,%rax,1)
    5db8:	48 8b 47 30          	mov    0x30(%rdi),%rax
    5dbc:	48 8b 70 18          	mov    0x18(%rax),%rsi
    5dc0:	48 8b 40 10          	mov    0x10(%rax),%rax
    5dc4:	48 39 c6             	cmp    %rax,%rsi
    5dc7:	0f 84 1d 02 00 00    	je     5fea <_ZN8argparselsERSoRKNS_14ArgumentParserE.isra.0+0x2ca>
    5dcd:	48 8d 4e e0          	lea    -0x20(%rsi),%rcx
    5dd1:	48 29 c1             	sub    %rax,%rcx
    5dd4:	49 89 c8             	mov    %rcx,%r8
    5dd7:	48 89 c2             	mov    %rax,%rdx
    5dda:	49 c1 e8 05          	shr    $0x5,%r8
    5dde:	48 81 f9 a0 03 00 00 	cmp    $0x3a0,%rcx
    5de5:	0f 86 06 02 00 00    	jbe    5ff1 <_ZN8argparselsERSoRKNS_14ArgumentParserE.isra.0+0x2d1>
    5deb:	48 83 e1 80          	and    $0xffffffffffffff80,%rcx
    5def:	48 01 c1             	add    %rax,%rcx
    5df2:	c5 e1 ef db          	vpxor  %xmm3,%xmm3,%xmm3
    5df6:	66 2e 0f 1f 84 00 00 	cs nopw 0x0(%rax,%rax,1)
    5dfd:	00 00 00 
    5e00:	c5 fe 6f 42 08       	vmovdqu 0x8(%rdx),%ymm0
    5e05:	c5 fe 6f 4a 48       	vmovdqu 0x48(%rdx),%ymm1
    5e0a:	62 f2 ed 28 7e 82 28 	vpermt2q 0x28(%rdx),%ymm2,%ymm0
    5e11:	00 00 00 
    5e14:	62 f2 ed 28 7e 8a 68 	vpermt2q 0x68(%rdx),%ymm2,%ymm1
    5e1b:	00 00 00 
    5e1e:	62 f2 ed 28 7e c1    	vpermt2q %ymm1,%ymm2,%ymm0
    5e24:	c5 fd d4 c4          	vpaddq %ymm4,%ymm0,%ymm0
    5e28:	48 83 ea 80          	sub    $0xffffffffffffff80,%rdx
    5e2c:	c5 e5 d4 d8          	vpaddq %ymm0,%ymm3,%ymm3
    5e30:	48 39 d1             	cmp    %rdx,%rcx
    5e33:	75 cb                	jne    5e00 <_ZN8argparselsERSoRKNS_14ArgumentParserE.isra.0+0xe0>
    5e35:	c5 f9 6f c3          	vmovdqa %xmm3,%xmm0
    5e39:	62 f3 fd 28 39 db 01 	vextracti64x2 $0x1,%ymm3,%xmm3
    5e40:	c5 f9 d4 c3          	vpaddq %xmm3,%xmm0,%xmm0
    5e44:	c5 f1 73 d8 08       	vpsrldq $0x8,%xmm0,%xmm1
    5e49:	49 83 e0 fc          	and    $0xfffffffffffffffc,%r8
    5e4d:	c5 f9 d4 c1          	vpaddq %xmm1,%xmm0,%xmm0
    5e51:	49 c1 e0 05          	shl    $0x5,%r8
    5e55:	c4 e1 f9 7e c2       	vmovq  %xmm0,%rdx
    5e5a:	4c 01 c0             	add    %r8,%rax
    5e5d:	0f 1f 00             	nopl   (%rax)
    5e60:	48 8b 48 08          	mov    0x8(%rax),%rcx
    5e64:	48 83 c0 20          	add    $0x20,%rax
    5e68:	48 8d 54 0a 01       	lea    0x1(%rdx,%rcx,1),%rdx
    5e6d:	48 39 c6             	cmp    %rax,%rsi
    5e70:	75 ee                	jne    5e60 <_ZN8argparselsERSoRKNS_14ArgumentParserE.isra.0+0x140>
    5e72:	48 39 d3             	cmp    %rdx,%rbx
    5e75:	48 0f 42 da          	cmovb  %rdx,%rbx
    5e79:	c5 f8 77             	vzeroupper 
    5e7c:	e8 5f d2 ff ff       	call   30e0 <_ZSt18_Rb_tree_incrementPKSt18_Rb_tree_node_base@plt>
    5e81:	49 39 c5             	cmp    %rax,%r13
    5e84:	c5 fd 6f 15 14 a9 00 	vmovdqa 0xa914(%rip),%ymm2        # 107a0 <_ZTSN8argparse7details12parse_numberIfLNS0_12chars_formatE3EEE+0x40>
    5e8b:	00 
    5e8c:	c5 fd 6f 25 2c a9 00 	vmovdqa 0xa92c(%rip),%ymm4        # 107c0 <_ZTSN8argparse7details12parse_numberIfLNS0_12chars_formatE3EEE+0x60>
    5e93:	00 
    5e94:	48 89 c7             	mov    %rax,%rdi
    5e97:	0f 85 1b ff ff ff    	jne    5db8 <_ZN8argparselsERSoRKNS_14ArgumentParserE.isra.0+0x98>
    5e9d:	c5 f8 77             	vzeroupper 
    5ea0:	4d 8b bc 24 88 00 00 	mov    0x88(%r12),%r15
    5ea7:	00 
    5ea8:	4d 8d ac 24 88 00 00 	lea    0x88(%r12),%r13
    5eaf:	00 
    5eb0:	4d 39 ef             	cmp    %r13,%r15
    5eb3:	74 32                	je     5ee7 <_ZN8argparselsERSoRKNS_14ArgumentParserE.isra.0+0x1c7>
    5eb5:	0f 1f 00             	nopl   (%rax)
    5eb8:	49 8b 47 10          	mov    0x10(%r15),%rax
    5ebc:	4c 89 f7             	mov    %r14,%rdi
    5ebf:	48 8b 50 08          	mov    0x8(%rax),%rdx
    5ec3:	48 8b 30             	mov    (%rax),%rsi
    5ec6:	e8 d5 d4 ff ff       	call   33a0 <_ZSt16__ostream_insertIcSt11char_traitsIcEERSt13basic_ostreamIT_T0_ES6_PKS3_l@plt>
    5ecb:	48 89 c7             	mov    %rax,%rdi
    5ece:	ba 01 00 00 00       	mov    $0x1,%edx
    5ed3:	48 8d 35 af a2 00 00 	lea    0xa2af(%rip),%rsi        # 10189 <_fini+0xf68>
    5eda:	e8 c1 d4 ff ff       	call   33a0 <_ZSt16__ostream_insertIcSt11char_traitsIcEERSt13basic_ostreamIT_T0_ES6_PKS3_l@plt>
    5edf:	4d 8b 3f             	mov    (%r15),%r15
    5ee2:	4d 39 fd             	cmp    %r15,%r13
    5ee5:	75 d1                	jne    5eb8 <_ZN8argparselsERSoRKNS_14ArgumentParserE.isra.0+0x198>
    5ee7:	48 8d 35 d7 a2 00 00 	lea    0xa2d7(%rip),%rsi        # 101c5 <_fini+0xfa4>
    5eee:	4c 89 f7             	mov    %r14,%rdi
    5ef1:	e8 2a d2 ff ff       	call   3120 <_ZStlsISt11char_traitsIcEERSt13basic_ostreamIcT_ES5_PKc@plt>
    5ef6:	49 8b 54 24 48       	mov    0x48(%r12),%rdx
    5efb:	48 85 d2             	test   %rdx,%rdx
    5efe:	0f 85 3d 01 00 00    	jne    6041 <_ZN8argparselsERSoRKNS_14ArgumentParserE.isra.0+0x321>
    5f04:	4d 3b ac 24 88 00 00 	cmp    0x88(%r12),%r13
    5f0b:	00 
    5f0c:	0f 84 e6 00 00 00    	je     5ff8 <_ZN8argparselsERSoRKNS_14ArgumentParserE.isra.0+0x2d8>
    5f12:	48 8d 35 af a2 00 00 	lea    0xa2af(%rip),%rsi        # 101c8 <_fini+0xfa7>
    5f19:	4c 89 f7             	mov    %r14,%rdi
    5f1c:	e8 ff d1 ff ff       	call   3120 <_ZStlsISt11char_traitsIcEERSt13basic_ostreamIcT_ES5_PKc@plt>
    5f21:	4d 8b bc 24 88 00 00 	mov    0x88(%r12),%r15
    5f28:	00 
    5f29:	4d 39 fd             	cmp    %r15,%r13
    5f2c:	0f 84 c6 00 00 00    	je     5ff8 <_ZN8argparselsERSoRKNS_14ArgumentParserE.isra.0+0x2d8>
    5f32:	66 0f 1f 44 00 00    	nopw   0x0(%rax,%rax,1)
    5f38:	49 8b 06             	mov    (%r14),%rax
    5f3b:	49 8d 77 10          	lea    0x10(%r15),%rsi
    5f3f:	48 8b 40 e8          	mov    -0x18(%rax),%rax
    5f43:	4c 89 f7             	mov    %r14,%rdi
    5f46:	49 89 5c 06 10       	mov    %rbx,0x10(%r14,%rax,1)
    5f4b:	e8 f0 f8 ff ff       	call   5840 <_ZN8argparselsERSoRKNS_8ArgumentE.isra.0>
    5f50:	4d 8b 3f             	mov    (%r15),%r15
    5f53:	4d 39 fd             	cmp    %r15,%r13
    5f56:	75 e0                	jne    5f38 <_ZN8argparselsERSoRKNS_14ArgumentParserE.isra.0+0x218>
    5f58:	4d 8d bc 24 a0 00 00 	lea    0xa0(%r12),%r15
    5f5f:	00 
    5f60:	4d 39 bc 24 a0 00 00 	cmp    %r15,0xa0(%r12)
    5f67:	00 
    5f68:	74 67                	je     5fd1 <_ZN8argparselsERSoRKNS_14ArgumentParserE.isra.0+0x2b1>
    5f6a:	4d 3b ac 24 88 00 00 	cmp    0x88(%r12),%r13
    5f71:	00 
    5f72:	48 8d 35 21 a2 00 00 	lea    0xa221(%rip),%rsi        # 1019a <_fini+0xf79>
    5f79:	48 8d 05 46 a2 00 00 	lea    0xa246(%rip),%rax        # 101c6 <_fini+0xfa5>
    5f80:	48 0f 45 f0          	cmovne %rax,%rsi
    5f84:	4c 89 f7             	mov    %r14,%rdi
    5f87:	e8 94 d1 ff ff       	call   3120 <_ZStlsISt11char_traitsIcEERSt13basic_ostreamIcT_ES5_PKc@plt>
    5f8c:	48 89 c7             	mov    %rax,%rdi
    5f8f:	48 8d 35 49 a2 00 00 	lea    0xa249(%rip),%rsi        # 101df <_fini+0xfbe>
    5f96:	e8 85 d1 ff ff       	call   3120 <_ZStlsISt11char_traitsIcEERSt13basic_ostreamIcT_ES5_PKc@plt>
    5f9b:	4d 8b ac 24 a0 00 00 	mov    0xa0(%r12),%r13
    5fa2:	00 
    5fa3:	4d 39 fd             	cmp    %r15,%r13
    5fa6:	74 29                	je     5fd1 <_ZN8argparselsERSoRKNS_14ArgumentParserE.isra.0+0x2b1>
    5fa8:	0f 1f 84 00 00 00 00 	nopl   0x0(%rax,%rax,1)
    5faf:	00 
    5fb0:	49 8b 06             	mov    (%r14),%rax
    5fb3:	49 8d 75 10          	lea    0x10(%r13),%rsi
    5fb7:	48 8b 40 e8          	mov    -0x18(%rax),%rax
    5fbb:	4c 89 f7             	mov    %r14,%rdi
    5fbe:	49 89 5c 06 10       	mov    %rbx,0x10(%r14,%rax,1)
    5fc3:	e8 78 f8 ff ff       	call   5840 <_ZN8argparselsERSoRKNS_8ArgumentE.isra.0>
    5fc8:	4d 8b 6d 00          	mov    0x0(%r13),%r13
    5fcc:	4d 39 fd             	cmp    %r15,%r13
    5fcf:	75 df                	jne    5fb0 <_ZN8argparselsERSoRKNS_14ArgumentParserE.isra.0+0x290>
    5fd1:	49 8b 54 24 68       	mov    0x68(%r12),%rdx
    5fd6:	48 85 d2             	test   %rdx,%rdx
    5fd9:	75 3c                	jne    6017 <_ZN8argparselsERSoRKNS_14ArgumentParserE.isra.0+0x2f7>
    5fdb:	48 8d 65 d8          	lea    -0x28(%rbp),%rsp
    5fdf:	5b                   	pop    %rbx
    5fe0:	41 5c                	pop    %r12
    5fe2:	41 5d                	pop    %r13
    5fe4:	41 5e                	pop    %r14
    5fe6:	41 5f                	pop    %r15
    5fe8:	5d                   	pop    %rbp
    5fe9:	c3                   	ret    
    5fea:	31 d2                	xor    %edx,%edx
    5fec:	e9 81 fe ff ff       	jmp    5e72 <_ZN8argparselsERSoRKNS_14ArgumentParserE.isra.0+0x152>
    5ff1:	31 d2                	xor    %edx,%edx
    5ff3:	e9 68 fe ff ff       	jmp    5e60 <_ZN8argparselsERSoRKNS_14ArgumentParserE.isra.0+0x140>
    5ff8:	4d 8d bc 24 a0 00 00 	lea    0xa0(%r12),%r15
    5fff:	00 
    6000:	48 8d 35 93 a1 00 00 	lea    0xa193(%rip),%rsi        # 1019a <_fini+0xf79>
    6007:	4d 39 bc 24 a0 00 00 	cmp    %r15,0xa0(%r12)
    600e:	00 
    600f:	0f 85 6f ff ff ff    	jne    5f84 <_ZN8argparselsERSoRKNS_14ArgumentParserE.isra.0+0x264>
    6015:	eb ba                	jmp    5fd1 <_ZN8argparselsERSoRKNS_14ArgumentParserE.isra.0+0x2b1>
    6017:	49 8b 74 24 60       	mov    0x60(%r12),%rsi
    601c:	4c 89 f7             	mov    %r14,%rdi
    601f:	e8 7c d3 ff ff       	call   33a0 <_ZSt16__ostream_insertIcSt11char_traitsIcEERSt13basic_ostreamIT_T0_ES6_PKS3_l@plt>
    6024:	48 8d 65 d8          	lea    -0x28(%rbp),%rsp
    6028:	5b                   	pop    %rbx
    6029:	41 5c                	pop    %r12
    602b:	41 5d                	pop    %r13
    602d:	41 5e                	pop    %r14
    602f:	41 5f                	pop    %r15
    6031:	48 89 c7             	mov    %rax,%rdi
    6034:	48 8d 35 8a a1 00 00 	lea    0xa18a(%rip),%rsi        # 101c5 <_fini+0xfa4>
    603b:	5d                   	pop    %rbp
    603c:	e9 df d0 ff ff       	jmp    3120 <_ZStlsISt11char_traitsIcEERSt13basic_ostreamIcT_ES5_PKc@plt>
    6041:	49 8b 74 24 40       	mov    0x40(%r12),%rsi
    6046:	4c 89 f7             	mov    %r14,%rdi
    6049:	e8 52 d3 ff ff       	call   33a0 <_ZSt16__ostream_insertIcSt11char_traitsIcEERSt13basic_ostreamIT_T0_ES6_PKS3_l@plt>
    604e:	48 89 c7             	mov    %rax,%rdi
    6051:	48 8d 35 6d a1 00 00 	lea    0xa16d(%rip),%rsi        # 101c5 <_fini+0xfa4>
    6058:	e8 c3 d0 ff ff       	call   3120 <_ZStlsISt11char_traitsIcEERSt13basic_ostreamIcT_ES5_PKc@plt>
    605d:	e9 a2 fe ff ff       	jmp    5f04 <_ZN8argparselsERSoRKNS_14ArgumentParserE.isra.0+0x1e4>
    6062:	66 66 2e 0f 1f 84 00 	data16 cs nopw 0x0(%rax,%rax,1)
    6069:	00 00 00 00 
    606d:	0f 1f 00             	nopl   (%rax)

0000000000006070 <_ZZN8argparse14ArgumentParserC4ENSt7__cxx1112basic_stringIcSt11char_traitsIcESaIcEEES6_NS_17default_argumentsEENKUlRKT_E_clIS6_EEDaSA_.isra.0>:
    6070:	41 54                	push   %r12
    6072:	55                   	push   %rbp
    6073:	48 89 fd             	mov    %rdi,%rbp
    6076:	48 81 ec b8 01 00 00 	sub    $0x1b8,%rsp
    607d:	4c 8d 64 24 20       	lea    0x20(%rsp),%r12
    6082:	4c 89 e7             	mov    %r12,%rdi
    6085:	64 48 8b 04 25 28 00 	mov    %fs:0x28,%rax
    608c:	00 00 
    608e:	48 89 84 24 a8 01 00 	mov    %rax,0x1a8(%rsp)
    6095:	00 
    6096:	31 c0                	xor    %eax,%eax
    6098:	e8 73 d2 ff ff       	call   3310 <_ZNSt7__cxx1118basic_stringstreamIcSt11char_traitsIcESaIcEEC1Ev@plt>
    609d:	48 8d 7c 24 30       	lea    0x30(%rsp),%rdi
    60a2:	48 89 ee             	mov    %rbp,%rsi
    60a5:	e8 76 fc ff ff       	call   5d20 <_ZN8argparselsERSoRKNS_14ArgumentParserE.isra.0>
    60aa:	48 89 e7             	mov    %rsp,%rdi
    60ad:	48 8d 74 24 38       	lea    0x38(%rsp),%rsi
    60b2:	e8 c9 d0 ff ff       	call   3180 <_ZNKSt7__cxx1115basic_stringbufIcSt11char_traitsIcESaIcEE3strEv@plt>
    60b7:	48 8b 54 24 08       	mov    0x8(%rsp),%rdx
    60bc:	48 8b 34 24          	mov    (%rsp),%rsi
    60c0:	48 8d 3d 79 df 00 00 	lea    0xdf79(%rip),%rdi        # 14040 <_ZSt4cout@@Base>
    60c7:	e8 d4 d2 ff ff       	call   33a0 <_ZSt16__ostream_insertIcSt11char_traitsIcEERSt13basic_ostreamIT_T0_ES6_PKS3_l@plt>
    60cc:	48 8b 3c 24          	mov    (%rsp),%rdi
    60d0:	48 8d 44 24 10       	lea    0x10(%rsp),%rax
    60d5:	48 39 c7             	cmp    %rax,%rdi
    60d8:	74 0e                	je     60e8 <_ZZN8argparse14ArgumentParserC4ENSt7__cxx1112basic_stringIcSt11char_traitsIcESaIcEEES6_NS_17default_argumentsEENKUlRKT_E_clIS6_EEDaSA_.isra.0+0x78>
    60da:	48 8b 44 24 10       	mov    0x10(%rsp),%rax
    60df:	48 8d 70 01          	lea    0x1(%rax),%rsi
    60e3:	e8 38 d2 ff ff       	call   3320 <_ZdlPvm@plt>
    60e8:	4c 89 e7             	mov    %r12,%rdi
    60eb:	e8 90 d2 ff ff       	call   3380 <_ZNSt7__cxx1118basic_stringstreamIcSt11char_traitsIcESaIcEED1Ev@plt>
    60f0:	31 ff                	xor    %edi,%edi
    60f2:	e8 49 cf ff ff       	call   3040 <exit@plt>
    60f7:	48 89 c5             	mov    %rax,%rbp
    60fa:	e9 5b d4 ff ff       	jmp    355a <_ZZN8argparse14ArgumentParserC4ENSt7__cxx1112basic_stringIcSt11char_traitsIcESaIcEEES6_NS_17default_argumentsEENKUlRKT_E_clIS6_EEDaSA_.isra.0.cold>
    60ff:	48 89 c5             	mov    %rax,%rbp
    6102:	e9 66 d4 ff ff       	jmp    356d <_ZZN8argparse14ArgumentParserC4ENSt7__cxx1112basic_stringIcSt11char_traitsIcESaIcEEES6_NS_17default_argumentsEENKUlRKT_E_clIS6_EEDaSA_.isra.0.cold+0x13>
    6107:	48 89 c5             	mov    %rax,%rbp
    610a:	c5 f8 77             	vzeroupper 
    610d:	e9 7a d4 ff ff       	jmp    358c <_ZZN8argparse14ArgumentParserC4ENSt7__cxx1112basic_stringIcSt11char_traitsIcESaIcEEES6_NS_17default_argumentsEENKUlRKT_E_clIS6_EEDaSA_.isra.0.cold+0x32>
    6112:	66 2e 0f 1f 84 00 00 	cs nopw 0x0(%rax,%rax,1)
    6119:	00 00 00 
    611c:	0f 1f 40 00          	nopl   0x0(%rax)

0000000000006120 <_ZNKSt18bad_variant_access4whatEv>:
    6120:	48 8b 47 08          	mov    0x8(%rdi),%rax
    6124:	c3                   	ret    
    6125:	66 2e 0f 1f 84 00 00 	cs nopw 0x0(%rax,%rax,1)
    612c:	00 00 00 
    612f:	90                   	nop

0000000000006130 <_ZNSt3any17_Manager_internalIbE9_S_manageENS_3_OpEPKS_PNS_4_ArgE>:
    6130:	83 ff 02             	cmp    $0x2,%edi
    6133:	74 4b                	je     6180 <_ZNSt3any17_Manager_internalIbE9_S_manageENS_3_OpEPKS_PNS_4_ArgE+0x50>
    6135:	77 19                	ja     6150 <_ZNSt3any17_Manager_internalIbE9_S_manageENS_3_OpEPKS_PNS_4_ArgE+0x20>
    6137:	85 ff                	test   %edi,%edi
    6139:	74 3d                	je     6178 <_ZNSt3any17_Manager_internalIbE9_S_manageENS_3_OpEPKS_PNS_4_ArgE+0x48>
    613b:	48 8d 05 ce d7 00 00 	lea    0xd7ce(%rip),%rax        # 13910 <_ZTIb@@Base>
    6142:	48 89 02             	mov    %rax,(%rdx)
    6145:	c3                   	ret    
    6146:	66 2e 0f 1f 84 00 00 	cs nopw 0x0(%rax,%rax,1)
    614d:	00 00 00 
    6150:	83 ff 04             	cmp    $0x4,%edi
    6153:	75 1b                	jne    6170 <_ZNSt3any17_Manager_internalIbE9_S_manageENS_3_OpEPKS_PNS_4_ArgE+0x40>
    6155:	48 8b 02             	mov    (%rdx),%rax
    6158:	0f b6 4e 08          	movzbl 0x8(%rsi),%ecx
    615c:	48 8b 16             	mov    (%rsi),%rdx
    615f:	88 48 08             	mov    %cl,0x8(%rax)
    6162:	48 89 10             	mov    %rdx,(%rax)
    6165:	48 c7 06 00 00 00 00 	movq   $0x0,(%rsi)
    616c:	c3                   	ret    
    616d:	0f 1f 00             	nopl   (%rax)
    6170:	c3                   	ret    
    6171:	0f 1f 80 00 00 00 00 	nopl   0x0(%rax)
    6178:	48 83 c6 08          	add    $0x8,%rsi
    617c:	48 89 32             	mov    %rsi,(%rdx)
    617f:	c3                   	ret    
    6180:	48 8b 02             	mov    (%rdx),%rax
    6183:	0f b6 56 08          	movzbl 0x8(%rsi),%edx
    6187:	88 50 08             	mov    %dl,0x8(%rax)
    618a:	48 8b 16             	mov    (%rsi),%rdx
    618d:	48 89 10             	mov    %rdx,(%rax)
    6190:	c3                   	ret    
    6191:	66 2e 0f 1f 84 00 00 	cs nopw 0x0(%rax,%rax,1)
    6198:	00 00 00 
    619b:	0f 1f 44 00 00       	nopl   0x0(%rax,%rax,1)

00000000000061a0 <_ZNSt8__detail9__variant17__gen_vtable_implINS0_12_Multi_arrayIPFvOZNS0_16_Variant_storageILb0EJSt8functionIFSt3anyRKNSt7__cxx1112basic_stringIcSt11char_traitsIcESaIcEEEEES4_IFvSD_EEEE8_M_resetEvEUlOT_E_RSt7variantIJSF_SH_EEEJEEESt16integer_sequenceImJLm0EEEE14__visit_invokeESM_SP_>:
    61a0:	48 8b 46 10          	mov    0x10(%rsi),%rax
    61a4:	48 85 c0             	test   %rax,%rax
    61a7:	74 17                	je     61c0 <_ZNSt8__detail9__variant17__gen_vtable_implINS0_12_Multi_arrayIPFvOZNS0_16_Variant_storageILb0EJSt8functionIFSt3anyRKNSt7__cxx1112basic_stringIcSt11char_traitsIcESaIcEEEEES4_IFvSD_EEEE8_M_resetEvEUlOT_E_RSt7variantIJSF_SH_EEEJEEESt16integer_sequenceImJLm0EEEE14__visit_invokeESM_SP_+0x20>
    61a9:	48 83 ec 08          	sub    $0x8,%rsp
    61ad:	48 89 f7             	mov    %rsi,%rdi
    61b0:	ba 03 00 00 00       	mov    $0x3,%edx
    61b5:	ff d0                	call   *%rax
    61b7:	48 83 c4 08          	add    $0x8,%rsp
    61bb:	c3                   	ret    
    61bc:	0f 1f 40 00          	nopl   0x0(%rax)
    61c0:	c3                   	ret    
    61c1:	66 2e 0f 1f 84 00 00 	cs nopw 0x0(%rax,%rax,1)
    61c8:	00 00 00 
    61cb:	0f 1f 44 00 00       	nopl   0x0(%rax,%rax,1)

00000000000061d0 <_ZNSt8__detail9__variant17__gen_vtable_implINS0_12_Multi_arrayIPFvOZNS0_16_Variant_storageILb0EJSt8functionIFSt3anyRKNSt7__cxx1112basic_stringIcSt11char_traitsIcESaIcEEEEES4_IFvSD_EEEE8_M_resetEvEUlOT_E_RSt7variantIJSF_SH_EEEJEEESt16integer_sequenceImJLm1EEEE14__visit_invokeESM_SP_>:
    61d0:	48 8b 46 10          	mov    0x10(%rsi),%rax
    61d4:	48 85 c0             	test   %rax,%rax
    61d7:	74 17                	je     61f0 <_ZNSt8__detail9__variant17__gen_vtable_implINS0_12_Multi_arrayIPFvOZNS0_16_Variant_storageILb0EJSt8functionIFSt3anyRKNSt7__cxx1112basic_stringIcSt11char_traitsIcESaIcEEEEES4_IFvSD_EEEE8_M_resetEvEUlOT_E_RSt7variantIJSF_SH_EEEJEEESt16integer_sequenceImJLm1EEEE14__visit_invokeESM_SP_+0x20>
    61d9:	48 83 ec 08          	sub    $0x8,%rsp
    61dd:	48 89 f7             	mov    %rsi,%rdi
    61e0:	ba 03 00 00 00       	mov    $0x3,%edx
    61e5:	ff d0                	call   *%rax
    61e7:	48 83 c4 08          	add    $0x8,%rsp
    61eb:	c3                   	ret    
    61ec:	0f 1f 40 00          	nopl   0x0(%rax)
    61f0:	c3                   	ret    
    61f1:	66 2e 0f 1f 84 00 00 	cs nopw 0x0(%rax,%rax,1)
    61f8:	00 00 00 
    61fb:	0f 1f 44 00 00       	nopl   0x0(%rax,%rax,1)

0000000000006200 <_ZNSt3any17_Manager_internalIiE9_S_manageENS_3_OpEPKS_PNS_4_ArgE>:
    6200:	83 ff 02             	cmp    $0x2,%edi
    6203:	74 4b                	je     6250 <_ZNSt3any17_Manager_internalIiE9_S_manageENS_3_OpEPKS_PNS_4_ArgE+0x50>
    6205:	77 19                	ja     6220 <_ZNSt3any17_Manager_internalIiE9_S_manageENS_3_OpEPKS_PNS_4_ArgE+0x20>
    6207:	85 ff                	test   %edi,%edi
    6209:	74 3d                	je     6248 <_ZNSt3any17_Manager_internalIiE9_S_manageENS_3_OpEPKS_PNS_4_ArgE+0x48>
    620b:	48 8d 05 7e d8 00 00 	lea    0xd87e(%rip),%rax        # 13a90 <_ZTIi@@Base>
    6212:	48 89 02             	mov    %rax,(%rdx)
    6215:	c3                   	ret    
    6216:	66 2e 0f 1f 84 00 00 	cs nopw 0x0(%rax,%rax,1)
    621d:	00 00 00 
    6220:	83 ff 04             	cmp    $0x4,%edi
    6223:	75 1b                	jne    6240 <_ZNSt3any17_Manager_internalIiE9_S_manageENS_3_OpEPKS_PNS_4_ArgE+0x40>
    6225:	48 8b 02             	mov    (%rdx),%rax
    6228:	8b 4e 08             	mov    0x8(%rsi),%ecx
    622b:	48 8b 16             	mov    (%rsi),%rdx
    622e:	89 48 08             	mov    %ecx,0x8(%rax)
    6231:	48 89 10             	mov    %rdx,(%rax)
    6234:	48 c7 06 00 00 00 00 	movq   $0x0,(%rsi)
    623b:	c3                   	ret    
    623c:	0f 1f 40 00          	nopl   0x0(%rax)
    6240:	c3                   	ret    
    6241:	0f 1f 80 00 00 00 00 	nopl   0x0(%rax)
    6248:	48 83 c6 08          	add    $0x8,%rsi
    624c:	48 89 32             	mov    %rsi,(%rdx)
    624f:	c3                   	ret    
    6250:	48 8b 02             	mov    (%rdx),%rax
    6253:	8b 56 08             	mov    0x8(%rsi),%edx
    6256:	89 50 08             	mov    %edx,0x8(%rax)
    6259:	48 8b 16             	mov    (%rsi),%rdx
    625c:	48 89 10             	mov    %rdx,(%rax)
    625f:	c3                   	ret    

0000000000006260 <_ZNSt3any17_Manager_internalIfE9_S_manageENS_3_OpEPKS_PNS_4_ArgE>:
    6260:	83 ff 02             	cmp    $0x2,%edi
    6263:	74 4b                	je     62b0 <_ZNSt3any17_Manager_internalIfE9_S_manageENS_3_OpEPKS_PNS_4_ArgE+0x50>
    6265:	77 19                	ja     6280 <_ZNSt3any17_Manager_internalIfE9_S_manageENS_3_OpEPKS_PNS_4_ArgE+0x20>
    6267:	85 ff                	test   %edi,%edi
    6269:	74 3d                	je     62a8 <_ZNSt3any17_Manager_internalIfE9_S_manageENS_3_OpEPKS_PNS_4_ArgE+0x48>
    626b:	48 8d 05 8e d6 00 00 	lea    0xd68e(%rip),%rax        # 13900 <_ZTIf@@Base>
    6272:	48 89 02             	mov    %rax,(%rdx)
    6275:	c3                   	ret    
    6276:	66 2e 0f 1f 84 00 00 	cs nopw 0x0(%rax,%rax,1)
    627d:	00 00 00 
    6280:	83 ff 04             	cmp    $0x4,%edi
    6283:	75 1b                	jne    62a0 <_ZNSt3any17_Manager_internalIfE9_S_manageENS_3_OpEPKS_PNS_4_ArgE+0x40>
    6285:	48 8b 02             	mov    (%rdx),%rax
    6288:	c5 fa 10 46 08       	vmovss 0x8(%rsi),%xmm0
    628d:	48 8b 16             	mov    (%rsi),%rdx
    6290:	c5 fa 11 40 08       	vmovss %xmm0,0x8(%rax)
    6295:	48 89 10             	mov    %rdx,(%rax)
    6298:	48 c7 06 00 00 00 00 	movq   $0x0,(%rsi)
    629f:	c3                   	ret    
    62a0:	c3                   	ret    
    62a1:	0f 1f 80 00 00 00 00 	nopl   0x0(%rax)
    62a8:	48 83 c6 08          	add    $0x8,%rsi
    62ac:	48 89 32             	mov    %rsi,(%rdx)
    62af:	c3                   	ret    
    62b0:	48 8b 02             	mov    (%rdx),%rax
    62b3:	c5 fa 10 46 08       	vmovss 0x8(%rsi),%xmm0
    62b8:	48 8b 16             	mov    (%rsi),%rdx
    62bb:	c5 fa 11 40 08       	vmovss %xmm0,0x8(%rax)
    62c0:	48 89 10             	mov    %rdx,(%rax)
    62c3:	c3                   	ret    
    62c4:	66 2e 0f 1f 84 00 00 	cs nopw 0x0(%rax,%rax,1)
    62cb:	00 00 00 
    62ce:	66 90                	xchg   %ax,%ax

00000000000062d0 <_ZNSt18bad_variant_accessD1Ev>:
    62d0:	48 8d 05 99 d5 00 00 	lea    0xd599(%rip),%rax        # 13870 <_ZTVSt18bad_variant_access+0x10>
    62d7:	48 89 07             	mov    %rax,(%rdi)
    62da:	e9 81 cf ff ff       	jmp    3260 <_ZNSt9exceptionD2Ev@plt>
    62df:	90                   	nop

00000000000062e0 <_ZNSt18bad_variant_accessD0Ev>:
    62e0:	48 8d 05 89 d5 00 00 	lea    0xd589(%rip),%rax        # 13870 <_ZTVSt18bad_variant_access+0x10>
    62e7:	55                   	push   %rbp
    62e8:	48 89 07             	mov    %rax,(%rdi)
    62eb:	48 89 fd             	mov    %rdi,%rbp
    62ee:	e8 6d cf ff ff       	call   3260 <_ZNSt9exceptionD2Ev@plt>
    62f3:	48 89 ef             	mov    %rbp,%rdi
    62f6:	be 10 00 00 00       	mov    $0x10,%esi
    62fb:	5d                   	pop    %rbp
    62fc:	e9 1f d0 ff ff       	jmp    3320 <_ZdlPvm@plt>
    6301:	66 2e 0f 1f 84 00 00 	cs nopw 0x0(%rax,%rax,1)
    6308:	00 00 00 
    630b:	0f 1f 44 00 00       	nopl   0x0(%rax,%rax,1)

0000000000006310 <_ZNSt17_Function_handlerIFSt3anyRKNSt7__cxx1112basic_stringIcSt11char_traitsIcESaIcEEEEN8argparse8Argument8m_actionMUlS8_E_EE10_M_managerERSt9_Any_dataRKSE_St18_Manager_operation>:
    6310:	85 d2                	test   %edx,%edx
    6312:	74 0c                	je     6320 <_ZNSt17_Function_handlerIFSt3anyRKNSt7__cxx1112basic_stringIcSt11char_traitsIcESaIcEEEEN8argparse8Argument8m_actionMUlS8_E_EE10_M_managerERSt9_Any_dataRKSE_St18_Manager_operation+0x10>
    6314:	83 fa 01             	cmp    $0x1,%edx
    6317:	75 03                	jne    631c <_ZNSt17_Function_handlerIFSt3anyRKNSt7__cxx1112basic_stringIcSt11char_traitsIcESaIcEEEEN8argparse8Argument8m_actionMUlS8_E_EE10_M_managerERSt9_Any_dataRKSE_St18_Manager_operation+0xc>
    6319:	48 89 37             	mov    %rsi,(%rdi)
    631c:	31 c0                	xor    %eax,%eax
    631e:	c3                   	ret    
    631f:	90                   	nop
    6320:	48 8d 05 31 d8 00 00 	lea    0xd831(%rip),%rax        # 13b58 <_ZTVN10__cxxabiv117__class_type_infoE@Base>
    6327:	48 89 07             	mov    %rax,(%rdi)
    632a:	31 c0                	xor    %eax,%eax
    632c:	c3                   	ret    
    632d:	0f 1f 00             	nopl   (%rax)

0000000000006330 <_ZNSt17_Function_handlerIFvRKNSt7__cxx1112basic_stringIcSt11char_traitsIcESaIcEEEEZN8argparse14ArgumentParserC4ES5_S5_NS9_17default_argumentsEEUlRKT_E_E10_M_managerERSt9_Any_dataRKSH_St18_Manager_operation>:
    6330:	85 d2                	test   %edx,%edx
    6332:	74 14                	je     6348 <_ZNSt17_Function_handlerIFvRKNSt7__cxx1112basic_stringIcSt11char_traitsIcESaIcEEEEZN8argparse14ArgumentParserC4ES5_S5_NS9_17default_argumentsEEUlRKT_E_E10_M_managerERSt9_Any_dataRKSH_St18_Manager_operation+0x18>
    6334:	83 fa 01             	cmp    $0x1,%edx
    6337:	74 1f                	je     6358 <_ZNSt17_Function_handlerIFvRKNSt7__cxx1112basic_stringIcSt11char_traitsIcESaIcEEEEZN8argparse14ArgumentParserC4ES5_S5_NS9_17default_argumentsEEUlRKT_E_E10_M_managerERSt9_Any_dataRKSH_St18_Manager_operation+0x28>
    6339:	83 fa 02             	cmp    $0x2,%edx
    633c:	74 22                	je     6360 <_ZNSt17_Function_handlerIFvRKNSt7__cxx1112basic_stringIcSt11char_traitsIcESaIcEEEEZN8argparse14ArgumentParserC4ES5_S5_NS9_17default_argumentsEEUlRKT_E_E10_M_managerERSt9_Any_dataRKSH_St18_Manager_operation+0x30>
    633e:	31 c0                	xor    %eax,%eax
    6340:	c3                   	ret    
    6341:	0f 1f 80 00 00 00 00 	nopl   0x0(%rax)
    6348:	48 8d 05 19 d8 00 00 	lea    0xd819(%rip),%rax        # 13b68 <_ZTVN10__cxxabiv117__class_type_infoE@Base>
    634f:	48 89 07             	mov    %rax,(%rdi)
    6352:	31 c0                	xor    %eax,%eax
    6354:	c3                   	ret    
    6355:	0f 1f 00             	nopl   (%rax)
    6358:	48 89 37             	mov    %rsi,(%rdi)
    635b:	31 c0                	xor    %eax,%eax
    635d:	c3                   	ret    
    635e:	66 90                	xchg   %ax,%ax
    6360:	48 8b 06             	mov    (%rsi),%rax
    6363:	48 89 07             	mov    %rax,(%rdi)
    6366:	eb d6                	jmp    633e <_ZNSt17_Function_handlerIFvRKNSt7__cxx1112basic_stringIcSt11char_traitsIcESaIcEEEEZN8argparse14ArgumentParserC4ES5_S5_NS9_17default_argumentsEEUlRKT_E_E10_M_managerERSt9_Any_dataRKSH_St18_Manager_operation+0xe>
    6368:	0f 1f 84 00 00 00 00 	nopl   0x0(%rax,%rax,1)
    636f:	00 

0000000000006370 <_ZNSt17_Function_handlerIFvRKNSt7__cxx1112basic_stringIcSt11char_traitsIcESaIcEEEEZN8argparse14ArgumentParserC4ES5_S5_NS9_17default_argumentsEEUlRKT_E0_E10_M_managerERSt9_Any_dataRKSH_St18_Manager_operation>:
    6370:	85 d2                	test   %edx,%edx
    6372:	74 14                	je     6388 <_ZNSt17_Function_handlerIFvRKNSt7__cxx1112basic_stringIcSt11char_traitsIcESaIcEEEEZN8argparse14ArgumentParserC4ES5_S5_NS9_17default_argumentsEEUlRKT_E0_E10_M_managerERSt9_Any_dataRKSH_St18_Manager_operation+0x18>
    6374:	83 fa 01             	cmp    $0x1,%edx
    6377:	74 1f                	je     6398 <_ZNSt17_Function_handlerIFvRKNSt7__cxx1112basic_stringIcSt11char_traitsIcESaIcEEEEZN8argparse14ArgumentParserC4ES5_S5_NS9_17default_argumentsEEUlRKT_E0_E10_M_managerERSt9_Any_dataRKSH_St18_Manager_operation+0x28>
    6379:	83 fa 02             	cmp    $0x2,%edx
    637c:	74 22                	je     63a0 <_ZNSt17_Function_handlerIFvRKNSt7__cxx1112basic_stringIcSt11char_traitsIcESaIcEEEEZN8argparse14ArgumentParserC4ES5_S5_NS9_17default_argumentsEEUlRKT_E0_E10_M_managerERSt9_Any_dataRKSH_St18_Manager_operation+0x30>
    637e:	31 c0                	xor    %eax,%eax
    6380:	c3                   	ret    
    6381:	0f 1f 80 00 00 00 00 	nopl   0x0(%rax)
    6388:	48 8d 05 e9 d7 00 00 	lea    0xd7e9(%rip),%rax        # 13b78 <_ZTVN10__cxxabiv117__class_type_infoE@Base>
    638f:	48 89 07             	mov    %rax,(%rdi)
    6392:	31 c0                	xor    %eax,%eax
    6394:	c3                   	ret    
    6395:	0f 1f 00             	nopl   (%rax)
    6398:	48 89 37             	mov    %rsi,(%rdi)
    639b:	31 c0                	xor    %eax,%eax
    639d:	c3                   	ret    
    639e:	66 90                	xchg   %ax,%ax
    63a0:	48 8b 06             	mov    (%rsi),%rax
    63a3:	48 89 07             	mov    %rax,(%rdi)
    63a6:	eb d6                	jmp    637e <_ZNSt17_Function_handlerIFvRKNSt7__cxx1112basic_stringIcSt11char_traitsIcESaIcEEEEZN8argparse14ArgumentParserC4ES5_S5_NS9_17default_argumentsEEUlRKT_E0_E10_M_managerERSt9_Any_dataRKSH_St18_Manager_operation+0xe>
    63a8:	0f 1f 84 00 00 00 00 	nopl   0x0(%rax,%rax,1)
    63af:	00 

00000000000063b0 <_ZNSt17_Function_handlerIFSt3anyRKNSt7__cxx1112basic_stringIcSt11char_traitsIcESaIcEEEEN8argparse7details12parse_numberIiLi0EEEE10_M_managerERSt9_Any_dataRKSF_St18_Manager_operation>:
    63b0:	85 d2                	test   %edx,%edx
    63b2:	74 0c                	je     63c0 <_ZNSt17_Function_handlerIFSt3anyRKNSt7__cxx1112basic_stringIcSt11char_traitsIcESaIcEEEEN8argparse7details12parse_numberIiLi0EEEE10_M_managerERSt9_Any_dataRKSF_St18_Manager_operation+0x10>
    63b4:	83 fa 01             	cmp    $0x1,%edx
    63b7:	75 03                	jne    63bc <_ZNSt17_Function_handlerIFSt3anyRKNSt7__cxx1112basic_stringIcSt11char_traitsIcESaIcEEEEN8argparse7details12parse_numberIiLi0EEEE10_M_managerERSt9_Any_dataRKSF_St18_Manager_operation+0xc>
    63b9:	48 89 37             	mov    %rsi,(%rdi)
    63bc:	31 c0                	xor    %eax,%eax
    63be:	c3                   	ret    
    63bf:	90                   	nop
    63c0:	48 8d 05 c1 d7 00 00 	lea    0xd7c1(%rip),%rax        # 13b88 <_ZTVN10__cxxabiv117__class_type_infoE@Base>
    63c7:	48 89 07             	mov    %rax,(%rdi)
    63ca:	31 c0                	xor    %eax,%eax
    63cc:	c3                   	ret    
    63cd:	0f 1f 00             	nopl   (%rax)

00000000000063d0 <_ZNSt17_Function_handlerIFSt3anyRKNSt7__cxx1112basic_stringIcSt11char_traitsIcESaIcEEEEN8argparse7details12parse_numberIfLNSB_12chars_formatE3EEEE10_M_managerERSt9_Any_dataRKSG_St18_Manager_operation>:
    63d0:	85 d2                	test   %edx,%edx
    63d2:	74 0c                	je     63e0 <_ZNSt17_Function_handlerIFSt3anyRKNSt7__cxx1112basic_stringIcSt11char_traitsIcESaIcEEEEN8argparse7details12parse_numberIfLNSB_12chars_formatE3EEEE10_M_managerERSt9_Any_dataRKSG_St18_Manager_operation+0x10>
    63d4:	83 fa 01             	cmp    $0x1,%edx
    63d7:	75 03                	jne    63dc <_ZNSt17_Function_handlerIFSt3anyRKNSt7__cxx1112basic_stringIcSt11char_traitsIcESaIcEEEEN8argparse7details12parse_numberIfLNSB_12chars_formatE3EEEE10_M_managerERSt9_Any_dataRKSG_St18_Manager_operation+0xc>
    63d9:	48 89 37             	mov    %rsi,(%rdi)
    63dc:	31 c0                	xor    %eax,%eax
    63de:	c3                   	ret    
    63df:	90                   	nop
    63e0:	48 8d 05 b1 d7 00 00 	lea    0xd7b1(%rip),%rax        # 13b98 <_ZTVN10__cxxabiv117__class_type_infoE@Base>
    63e7:	48 89 07             	mov    %rax,(%rdi)
    63ea:	31 c0                	xor    %eax,%eax
    63ec:	c3                   	ret    
    63ed:	0f 1f 00             	nopl   (%rax)

00000000000063f0 <_ZNSt8__detail9__variant17__gen_vtable_implINS0_12_Multi_arrayIPFNS0_21__deduce_visit_resultIvEEOZN8argparse8Argument7consumeIN9__gnu_cxx17__normal_iteratorIPKNSt7__cxx1112basic_stringIcSt11char_traitsIcESaIcEEESt6vectorISF_SaISF_EEEEEET_SM_SM_St17basic_string_viewIcSD_EEUlRKSM_E_RSt7variantIJSt8functionIFSt3anyRSG_EESU_IFvSW_EEEEEJEEESt16integer_sequenceImJLm1EEEE14__visit_invokeESS_S12_>:
    63f0:	55                   	push   %rbp
    63f1:	48 89 f0             	mov    %rsi,%rax
    63f4:	53                   	push   %rbx
    63f5:	48 83 ec 38          	sub    $0x38,%rsp
    63f9:	64 48 8b 14 25 28 00 	mov    %fs:0x28,%rdx
    6400:	00 00 
    6402:	48 89 54 24 28       	mov    %rdx,0x28(%rsp)
    6407:	31 d2                	xor    %edx,%edx
    6409:	48 8d 5c 24 10       	lea    0x10(%rsp),%rbx
    640e:	48 83 7e 10 00       	cmpq   $0x0,0x10(%rsi)
    6413:	48 89 1c 24          	mov    %rbx,(%rsp)
    6417:	48 c7 44 24 08 00 00 	movq   $0x0,0x8(%rsp)
    641e:	00 00 
    6420:	c6 44 24 10 00       	movb   $0x0,0x10(%rsp)
    6425:	74 37                	je     645e <_ZNSt8__detail9__variant17__gen_vtable_implINS0_12_Multi_arrayIPFNS0_21__deduce_visit_resultIvEEOZN8argparse8Argument7consumeIN9__gnu_cxx17__normal_iteratorIPKNSt7__cxx1112basic_stringIcSt11char_traitsIcESaIcEEESt6vectorISF_SaISF_EEEEEET_SM_SM_St17basic_string_viewIcSD_EEUlRKSM_E_RSt7variantIJSt8functionIFSt3anyRSG_EESU_IFvSW_EEEEEJEEESt16integer_sequenceImJLm1EEEE14__visit_invokeESS_S12_+0x6e>
    6427:	48 89 e6             	mov    %rsp,%rsi
    642a:	48 89 c7             	mov    %rax,%rdi
    642d:	ff 50 18             	call   *0x18(%rax)
    6430:	48 8b 3c 24          	mov    (%rsp),%rdi
    6434:	48 39 df             	cmp    %rbx,%rdi
    6437:	74 0e                	je     6447 <_ZNSt8__detail9__variant17__gen_vtable_implINS0_12_Multi_arrayIPFNS0_21__deduce_visit_resultIvEEOZN8argparse8Argument7consumeIN9__gnu_cxx17__normal_iteratorIPKNSt7__cxx1112basic_stringIcSt11char_traitsIcESaIcEEESt6vectorISF_SaISF_EEEEEET_SM_SM_St17basic_string_viewIcSD_EEUlRKSM_E_RSt7variantIJSt8functionIFSt3anyRSG_EESU_IFvSW_EEEEEJEEESt16integer_sequenceImJLm1EEEE14__visit_invokeESS_S12_+0x57>
    6439:	48 8b 44 24 10       	mov    0x10(%rsp),%rax
    643e:	48 8d 70 01          	lea    0x1(%rax),%rsi
    6442:	e8 d9 ce ff ff       	call   3320 <_ZdlPvm@plt>
    6447:	48 8b 44 24 28       	mov    0x28(%rsp),%rax
    644c:	64 48 2b 04 25 28 00 	sub    %fs:0x28,%rax
    6453:	00 00 
    6455:	75 0c                	jne    6463 <_ZNSt8__detail9__variant17__gen_vtable_implINS0_12_Multi_arrayIPFNS0_21__deduce_visit_resultIvEEOZN8argparse8Argument7consumeIN9__gnu_cxx17__normal_iteratorIPKNSt7__cxx1112basic_stringIcSt11char_traitsIcESaIcEEESt6vectorISF_SaISF_EEEEEET_SM_SM_St17basic_string_viewIcSD_EEUlRKSM_E_RSt7variantIJSt8functionIFSt3anyRSG_EESU_IFvSW_EEEEEJEEESt16integer_sequenceImJLm1EEEE14__visit_invokeESS_S12_+0x73>
    6457:	48 83 c4 38          	add    $0x38,%rsp
    645b:	5b                   	pop    %rbx
